GAS LISTING /tmp/ccdBt5rw.s 			page 1


   1              		.file	"Buf.cpp"
   2              		.option pic
   3              		.option norelax
   4              		.text
   5              	.Ltext0:
   6              		.align	2
   7              		.globl	_ZN3BufC2Ev
   9              	_ZN3BufC2Ev:
  10              	.LFB20:
  11              		.file 1 "src/Buf.cpp"
   1:src/Buf.cpp   **** //
   2:src/Buf.cpp   **** // Created by os on 8/16/23.
   3:src/Buf.cpp   **** //
   4:src/Buf.cpp   **** 
   5:src/Buf.cpp   **** #include "../h/Buf.h"
   6:src/Buf.cpp   **** 
   7:src/Buf.cpp   **** Buf:: Buf(){
  12              		.loc 1 7 1
  13              		.cfi_startproc
  14              	.LVL0:
  15 0000 130101FE 		addi	sp,sp,-32
  16              		.cfi_def_cfa_offset 32
  17 0004 233C1100 		sd	ra,24(sp)
  18 0008 23388100 		sd	s0,16(sp)
  19 000c 23349100 		sd	s1,8(sp)
  20 0010 23302101 		sd	s2,0(sp)
  21              		.cfi_offset 1, -8
  22              		.cfi_offset 8, -16
  23              		.cfi_offset 9, -24
  24              		.cfi_offset 18, -32
  25 0014 13040102 		addi	s0,sp,32
  26              		.cfi_def_cfa 8, 0
  27 0018 93040500 		mv	s1,a0
  28              	.LBB5:
  29              		.loc 1 7 11 is_stmt 0
  30 001c 23200500 		sw	zero,0(a0)
  31 0020 23220500 		sw	zero,4(a0)
   8:src/Buf.cpp   ****     buf=(char*)MemAlloc::getAllocator().mem_alloc(BUFF_SIZE/MEM_BLOCK_SIZE);
  32              		.loc 1 8 5 is_stmt 1
  33              	.LBB6:
  34              	.LBB7:
  35              		.file 2 "src/../h/MemoryAllocator.h"
   1:src/../h/MemoryAllocator.h **** //
   2:src/../h/MemoryAllocator.h **** // Created by os on 8/3/23.
   3:src/../h/MemoryAllocator.h **** //
   4:src/../h/MemoryAllocator.h **** 
   5:src/../h/MemoryAllocator.h **** #ifndef PROJECT_BASE_V1_1_MEMORYALLOCATOR_H
   6:src/../h/MemoryAllocator.h **** #define PROJECT_BASE_V1_1_MEMORYALLOCATOR_H
   7:src/../h/MemoryAllocator.h **** #include "../lib/hw.h"
   8:src/../h/MemoryAllocator.h **** 
   9:src/../h/MemoryAllocator.h **** class MemAlloc{
  10:src/../h/MemoryAllocator.h ****     struct FreeSeg{
  11:src/../h/MemoryAllocator.h ****         FreeSeg* prev;
  12:src/../h/MemoryAllocator.h ****         FreeSeg* next;
  13:src/../h/MemoryAllocator.h ****         size_t szBl;
  14:src/../h/MemoryAllocator.h ****         size_t szBy;
  15:src/../h/MemoryAllocator.h ****     };
GAS LISTING /tmp/ccdBt5rw.s 			page 2


  16:src/../h/MemoryAllocator.h ****     FreeSeg* headFree= nullptr;
  17:src/../h/MemoryAllocator.h ****     bool flag=false;
  18:src/../h/MemoryAllocator.h ****     void tryToMerge(FreeSeg*);
  19:src/../h/MemoryAllocator.h ****     static size_t  bytesToBlocks(size_t s);
  20:src/../h/MemoryAllocator.h ****     MemAlloc()=default;
  21:src/../h/MemoryAllocator.h **** public:
  22:src/../h/MemoryAllocator.h ****     void* mem_alloc(size_t);
  23:src/../h/MemoryAllocator.h ****     int mem_free(void*);
  24:src/../h/MemoryAllocator.h ****     static MemAlloc& getAllocator(){
  25:src/../h/MemoryAllocator.h ****         static MemAlloc instance;
  36              		.loc 2 25 9
  26:src/../h/MemoryAllocator.h ****         if(!instance.flag){
  37              		.loc 2 26 9
  38              		.loc 2 26 22 is_stmt 0
  39 0024 97070000 		lbu	a5,_ZZN8MemAlloc12getAllocatorEvE8instance+8
  39      83C70700 
  40              		.loc 2 26 9
  41 002c 638C0704 		beqz	a5,.L4
  42              	.LVL1:
  43              	.L2:
  27:src/../h/MemoryAllocator.h ****             instance.flag=true;
  28:src/../h/MemoryAllocator.h ****             instance.headFree=(FreeSeg*)HEAP_START_ADDR;
  29:src/../h/MemoryAllocator.h ****             instance.headFree->next= nullptr;
  30:src/../h/MemoryAllocator.h ****             instance.headFree->prev= nullptr;
  31:src/../h/MemoryAllocator.h ****             instance.headFree->szBy=(uint64)((uint64*)HEAP_END_ADDR-(uint64*)HEAP_START_ADDR);
  32:src/../h/MemoryAllocator.h ****             instance.headFree->szBl=bytesToBlocks(instance.headFree->szBy-sizeof(FreeSeg));
  33:src/../h/MemoryAllocator.h ****         }
  34:src/../h/MemoryAllocator.h ****         return instance;
  44              		.loc 2 34 9 is_stmt 1
  45              	.LBE7:
  46              	.LBE6:
  47              		.loc 1 8 50 is_stmt 0
  48 0030 93050002 		li	a1,32
  49 0034 17050000 		lla	a0,_ZZN8MemAlloc12getAllocatorEvE8instance
  49      13050500 
  50 003c 97000000 		call	_ZN8MemAlloc9mem_allocEm@plt
  50      E7800000 
  51              	.LVL2:
  52              		.loc 1 8 8
  53 0044 23B4A400 		sd	a0,8(s1)
   9:src/Buf.cpp   ****     Sem::_sem_open(&itemAvailable,0);
  54              		.loc 1 9 5 is_stmt 1
  55              		.loc 1 9 19 is_stmt 0
  56 0048 93050000 		li	a1,0
  57 004c 13850401 		addi	a0,s1,16
  58 0050 97000000 		call	_ZN3Sem9_sem_openEPPS_j@plt
  58      E7800000 
  59              	.LVL3:
  10:src/Buf.cpp   ****     Sem::_sem_open(&spaceAvailable,2048);
  60              		.loc 1 10 5 is_stmt 1
  61              		.loc 1 10 19 is_stmt 0
  62 0058 B7150000 		li	a1,4096
  63 005c 93850580 		addi	a1,a1,-2048
  64 0060 13858401 		addi	a0,s1,24
  65 0064 97000000 		call	_ZN3Sem9_sem_openEPPS_j@plt
  65      E7800000 
  66              	.LVL4:
GAS LISTING /tmp/ccdBt5rw.s 			page 3


  67              	.LBE5:
  11:src/Buf.cpp   **** }
  68              		.loc 1 11 1
  69 006c 83308101 		ld	ra,24(sp)
  70              		.cfi_remember_state
  71              		.cfi_restore 1
  72 0070 03340101 		ld	s0,16(sp)
  73              		.cfi_restore 8
  74              		.cfi_def_cfa 2, 32
  75 0074 83348100 		ld	s1,8(sp)
  76              		.cfi_restore 9
  77              	.LVL5:
  78 0078 03390100 		ld	s2,0(sp)
  79              		.cfi_restore 18
  80 007c 13010102 		addi	sp,sp,32
  81              		.cfi_def_cfa_offset 0
  82 0080 67800000 		jr	ra
  83              	.LVL6:
  84              	.L4:
  85              		.cfi_restore_state
  86              	.LBB10:
  87              	.LBB9:
  88              	.LBB8:
  27:src/../h/MemoryAllocator.h ****             instance.headFree=(FreeSeg*)HEAP_START_ADDR;
  89              		.loc 2 27 13 is_stmt 1
  27:src/../h/MemoryAllocator.h ****             instance.headFree=(FreeSeg*)HEAP_START_ADDR;
  90              		.loc 2 27 26 is_stmt 0
  91 0084 97070000 		lla	a5,_ZZN8MemAlloc12getAllocatorEvE8instance
  91      93870700 
  92 008c 13071000 		li	a4,1
  93 0090 2384E700 		sb	a4,8(a5)
  28:src/../h/MemoryAllocator.h ****             instance.headFree->next= nullptr;
  94              		.loc 2 28 13 is_stmt 1
  28:src/../h/MemoryAllocator.h ****             instance.headFree->next= nullptr;
  95              		.loc 2 28 30 is_stmt 0
  96 0094 97060000 		la	a3,HEAP_START_ADDR
  96      83B60600 
  97 009c 03B70600 		ld	a4,0(a3)
  98 00a0 23B0E700 		sd	a4,0(a5)
  29:src/../h/MemoryAllocator.h ****             instance.headFree->prev= nullptr;
  99              		.loc 2 29 13 is_stmt 1
  29:src/../h/MemoryAllocator.h ****             instance.headFree->prev= nullptr;
 100              		.loc 2 29 36 is_stmt 0
 101 00a4 23340700 		sd	zero,8(a4)
  30:src/../h/MemoryAllocator.h ****             instance.headFree->szBy=(uint64)((uint64*)HEAP_END_ADDR-(uint64*)HEAP_START_ADDR);
 102              		.loc 2 30 13 is_stmt 1
  30:src/../h/MemoryAllocator.h ****             instance.headFree->szBy=(uint64)((uint64*)HEAP_END_ADDR-(uint64*)HEAP_START_ADDR);
 103              		.loc 2 30 36 is_stmt 0
 104 00a8 23300700 		sd	zero,0(a4)
  31:src/../h/MemoryAllocator.h ****             instance.headFree->szBl=bytesToBlocks(instance.headFree->szBy-sizeof(FreeSeg));
 105              		.loc 2 31 13 is_stmt 1
  31:src/../h/MemoryAllocator.h ****             instance.headFree->szBl=bytesToBlocks(instance.headFree->szBy-sizeof(FreeSeg));
 106              		.loc 2 31 46 is_stmt 0
 107 00ac 17070000 		la	a4,HEAP_END_ADDR
 107      03370700 
 108 00b4 03350700 		ld	a0,0(a4)
  31:src/../h/MemoryAllocator.h ****             instance.headFree->szBl=bytesToBlocks(instance.headFree->szBy-sizeof(FreeSeg));
GAS LISTING /tmp/ccdBt5rw.s 			page 4


 109              		.loc 2 31 69
 110 00b8 03B70600 		ld	a4,0(a3)
  31:src/../h/MemoryAllocator.h ****             instance.headFree->szBl=bytesToBlocks(instance.headFree->szBy-sizeof(FreeSeg));
 111              		.loc 2 31 68
 112 00bc 3305E540 		sub	a0,a0,a4
 113 00c0 13553540 		srai	a0,a0,3
  31:src/../h/MemoryAllocator.h ****             instance.headFree->szBl=bytesToBlocks(instance.headFree->szBy-sizeof(FreeSeg));
 114              		.loc 2 31 22
 115 00c4 03B90700 		ld	s2,0(a5)
  31:src/../h/MemoryAllocator.h ****             instance.headFree->szBl=bytesToBlocks(instance.headFree->szBy-sizeof(FreeSeg));
 116              		.loc 2 31 36
 117 00c8 233CA900 		sd	a0,24(s2)
  32:src/../h/MemoryAllocator.h ****         }
 118              		.loc 2 32 13 is_stmt 1
  32:src/../h/MemoryAllocator.h ****         }
 119              		.loc 2 32 50 is_stmt 0
 120 00cc 130505FE 		addi	a0,a0,-32
 121 00d0 97000000 		call	_ZN8MemAlloc13bytesToBlocksEm@plt
 121      E7800000 
 122              	.LVL7:
  32:src/../h/MemoryAllocator.h ****         }
 123              		.loc 2 32 36
 124 00d8 2338A900 		sd	a0,16(s2)
 125 00dc 6FF05FF5 		j	.L2
 126              	.LBE8:
 127              	.LBE9:
 128              	.LBE10:
 129              		.cfi_endproc
 130              	.LFE20:
 132              		.globl	_ZN3BufC1Ev
 133              		.set	_ZN3BufC1Ev,_ZN3BufC2Ev
 134              		.align	2
 135              		.globl	_ZN3Buf3putEc
 137              	_ZN3Buf3putEc:
 138              	.LFB22:
  12:src/Buf.cpp   **** 
  13:src/Buf.cpp   **** void Buf::put(char c){
 139              		.loc 1 13 22 is_stmt 1
 140              		.cfi_startproc
 141              	.LVL8:
 142 00e0 130101FE 		addi	sp,sp,-32
 143              		.cfi_def_cfa_offset 32
 144 00e4 233C1100 		sd	ra,24(sp)
 145 00e8 23388100 		sd	s0,16(sp)
 146 00ec 23349100 		sd	s1,8(sp)
 147 00f0 23302101 		sd	s2,0(sp)
 148              		.cfi_offset 1, -8
 149              		.cfi_offset 8, -16
 150              		.cfi_offset 9, -24
 151              		.cfi_offset 18, -32
 152 00f4 13040102 		addi	s0,sp,32
 153              		.cfi_def_cfa 8, 0
 154 00f8 93040500 		mv	s1,a0
 155 00fc 13890500 		mv	s2,a1
  14:src/Buf.cpp   ****     Sem::_sem_wait(spaceAvailable);
 156              		.loc 1 14 5
 157              		.loc 1 14 19 is_stmt 0
GAS LISTING /tmp/ccdBt5rw.s 			page 5


 158 0100 03358501 		ld	a0,24(a0)
 159              	.LVL9:
 160 0104 97000000 		call	_ZN3Sem9_sem_waitEPS_@plt
 160      E7800000 
 161              	.LVL10:
  15:src/Buf.cpp   ****     buf[tail]=c;
 162              		.loc 1 15 5 is_stmt 1
 163 010c 83B78400 		ld	a5,8(s1)
 164              		.loc 1 15 9 is_stmt 0
 165 0110 03A74400 		lw	a4,4(s1)
 166              		.loc 1 15 13
 167 0114 B387E700 		add	a5,a5,a4
 168              		.loc 1 15 14
 169 0118 23802701 		sb	s2,0(a5)
  16:src/Buf.cpp   ****     tail=(tail+1)%BUFF_SIZE;
 170              		.loc 1 16 5 is_stmt 1
 171              		.loc 1 16 11 is_stmt 0
 172 011c 83A74400 		lw	a5,4(s1)
 173              		.loc 1 16 15
 174 0120 9B871700 		addiw	a5,a5,1
 175              		.loc 1 16 18
 176 0124 1BD7F741 		sraiw	a4,a5,31
 177 0128 1B575701 		srliw	a4,a4,21
 178 012c BB87E700 		addw	a5,a5,a4
 179 0130 93F7F77F 		andi	a5,a5,2047
 180 0134 BB87E740 		subw	a5,a5,a4
 181              		.loc 1 16 9
 182 0138 23A2F400 		sw	a5,4(s1)
  17:src/Buf.cpp   ****     Sem::_sem_signal(itemAvailable);
 183              		.loc 1 17 5 is_stmt 1
 184              		.loc 1 17 21 is_stmt 0
 185 013c 03B50401 		ld	a0,16(s1)
 186 0140 97000000 		call	_ZN3Sem11_sem_signalEPS_@plt
 186      E7800000 
 187              	.LVL11:
  18:src/Buf.cpp   **** }
 188              		.loc 1 18 1
 189 0148 83308101 		ld	ra,24(sp)
 190              		.cfi_restore 1
 191 014c 03340101 		ld	s0,16(sp)
 192              		.cfi_restore 8
 193              		.cfi_def_cfa 2, 32
 194 0150 83348100 		ld	s1,8(sp)
 195              		.cfi_restore 9
 196              	.LVL12:
 197 0154 03390100 		ld	s2,0(sp)
 198              		.cfi_restore 18
 199 0158 13010102 		addi	sp,sp,32
 200              		.cfi_def_cfa_offset 0
 201 015c 67800000 		jr	ra
 202              		.cfi_endproc
 203              	.LFE22:
 205              		.align	2
 206              		.globl	_ZN3Buf3getEv
 208              	_ZN3Buf3getEv:
 209              	.LFB23:
  19:src/Buf.cpp   **** 
GAS LISTING /tmp/ccdBt5rw.s 			page 6


  20:src/Buf.cpp   **** char Buf::get(){
 210              		.loc 1 20 16 is_stmt 1
 211              		.cfi_startproc
 212              	.LVL13:
 213 0160 130101FE 		addi	sp,sp,-32
 214              		.cfi_def_cfa_offset 32
 215 0164 233C1100 		sd	ra,24(sp)
 216 0168 23388100 		sd	s0,16(sp)
 217 016c 23349100 		sd	s1,8(sp)
 218 0170 23302101 		sd	s2,0(sp)
 219              		.cfi_offset 1, -8
 220              		.cfi_offset 8, -16
 221              		.cfi_offset 9, -24
 222              		.cfi_offset 18, -32
 223 0174 13040102 		addi	s0,sp,32
 224              		.cfi_def_cfa 8, 0
 225 0178 93040500 		mv	s1,a0
  21:src/Buf.cpp   ****     Sem::_sem_wait(itemAvailable);
 226              		.loc 1 21 5
 227              		.loc 1 21 19 is_stmt 0
 228 017c 03350501 		ld	a0,16(a0)
 229              	.LVL14:
 230 0180 97000000 		call	_ZN3Sem9_sem_waitEPS_@plt
 230      E7800000 
 231              	.LVL15:
  22:src/Buf.cpp   ****     char c=buf[head];
 232              		.loc 1 22 5 is_stmt 1
 233              		.loc 1 22 12 is_stmt 0
 234 0188 03B78400 		ld	a4,8(s1)
 235              		.loc 1 22 16
 236 018c 83A70400 		lw	a5,0(s1)
 237              		.loc 1 22 20
 238 0190 3307F700 		add	a4,a4,a5
 239              		.loc 1 22 10
 240 0194 03490700 		lbu	s2,0(a4)
 241              	.LVL16:
  23:src/Buf.cpp   ****     head=(head+1)%BUFF_SIZE;
 242              		.loc 1 23 5 is_stmt 1
 243              		.loc 1 23 15 is_stmt 0
 244 0198 9B871700 		addiw	a5,a5,1
 245              		.loc 1 23 18
 246 019c 1BD7F741 		sraiw	a4,a5,31
 247 01a0 1B575701 		srliw	a4,a4,21
 248 01a4 BB87E700 		addw	a5,a5,a4
 249 01a8 93F7F77F 		andi	a5,a5,2047
 250 01ac BB87E740 		subw	a5,a5,a4
 251              		.loc 1 23 9
 252 01b0 23A0F400 		sw	a5,0(s1)
  24:src/Buf.cpp   ****     Sem::_sem_signal(spaceAvailable);
 253              		.loc 1 24 5 is_stmt 1
 254              		.loc 1 24 21 is_stmt 0
 255 01b4 03B58401 		ld	a0,24(s1)
 256 01b8 97000000 		call	_ZN3Sem11_sem_signalEPS_@plt
 256      E7800000 
 257              	.LVL17:
  25:src/Buf.cpp   ****     return c;
 258              		.loc 1 25 5 is_stmt 1
GAS LISTING /tmp/ccdBt5rw.s 			page 7


  26:src/Buf.cpp   **** }
 259              		.loc 1 26 1 is_stmt 0
 260 01c0 13050900 		mv	a0,s2
 261 01c4 83308101 		ld	ra,24(sp)
 262              		.cfi_restore 1
 263 01c8 03340101 		ld	s0,16(sp)
 264              		.cfi_restore 8
 265              		.cfi_def_cfa 2, 32
 266 01cc 83348100 		ld	s1,8(sp)
 267              		.cfi_restore 9
 268              	.LVL18:
 269 01d0 03390100 		ld	s2,0(sp)
 270              		.cfi_restore 18
 271              	.LVL19:
 272 01d4 13010102 		addi	sp,sp,32
 273              		.cfi_def_cfa_offset 0
 274 01d8 67800000 		jr	ra
 275              		.cfi_endproc
 276              	.LFE23:
 278              		.weak	_ZZN8MemAlloc12getAllocatorEvE8instance
 279              		.section	.bss._ZZN8MemAlloc12getAllocatorEvE8instance,"awG",@nobits,_ZZN8MemAlloc12getAllocatorEvE
 280              		.align	3
 283              	_ZZN8MemAlloc12getAllocatorEvE8instance:
 284 0000 00000000 		.zero	16
 284      00000000 
 284      00000000 
 284      00000000 
 285              		.text
 286              	.Letext0:
 287              		.file 3 "src/../h/../lib/hw.h"
 288              		.file 4 "src/../h/Con.h"
 289              		.file 5 "src/../h/Buf.h"
 290              		.file 6 "src/../h/TCB.h"
 291              		.file 7 "src/../h/Sem.h"
GAS LISTING /tmp/ccdBt5rw.s 			page 8


DEFINED SYMBOLS
                            *ABS*:0000000000000000 Buf.cpp
     /tmp/ccdBt5rw.s:9      .text:0000000000000000 _ZN3BufC2Ev
     /tmp/ccdBt5rw.s:13     .text:0000000000000000 .L0 
     /tmp/ccdBt5rw.s:15     .text:0000000000000000 .L0 
     /tmp/ccdBt5rw.s:16     .text:0000000000000004 .L0 
     /tmp/ccdBt5rw.s:21     .text:0000000000000014 .L0 
     /tmp/ccdBt5rw.s:22     .text:0000000000000014 .L0 
     /tmp/ccdBt5rw.s:23     .text:0000000000000014 .L0 
     /tmp/ccdBt5rw.s:24     .text:0000000000000014 .L0 
     /tmp/ccdBt5rw.s:26     .text:0000000000000018 .L0 
     /tmp/ccdBt5rw.s:30     .text:000000000000001c .L0 
     /tmp/ccdBt5rw.s:36     .text:0000000000000024 .L0 
     /tmp/ccdBt5rw.s:37     .text:0000000000000024 .L0 
     /tmp/ccdBt5rw.s:38     .text:0000000000000024 .L0 
     /tmp/ccdBt5rw.s:283    .bss._ZZN8MemAlloc12getAllocatorEvE8instance:0000000000000000 _ZZN8MemAlloc12getAllocatorEvE8instance
     /tmp/ccdBt5rw.s:39     .text:0000000000000024 .L0 
     /tmp/ccdBt5rw.s:41     .text:000000000000002c .L0 
     /tmp/ccdBt5rw.s:47     .text:0000000000000030 .L0 
     /tmp/ccdBt5rw.s:48     .text:0000000000000030 .L0 
     /tmp/ccdBt5rw.s:53     .text:0000000000000044 .L0 
     /tmp/ccdBt5rw.s:55     .text:0000000000000048 .L0 
     /tmp/ccdBt5rw.s:56     .text:0000000000000048 .L0 
     /tmp/ccdBt5rw.s:61     .text:0000000000000058 .L0 
     /tmp/ccdBt5rw.s:62     .text:0000000000000058 .L0 
     /tmp/ccdBt5rw.s:69     .text:000000000000006c .L0 
     /tmp/ccdBt5rw.s:70     .text:0000000000000070 .L0 
     /tmp/ccdBt5rw.s:71     .text:0000000000000070 .L0 
     /tmp/ccdBt5rw.s:73     .text:0000000000000074 .L0 
     /tmp/ccdBt5rw.s:74     .text:0000000000000074 .L0 
     /tmp/ccdBt5rw.s:76     .text:0000000000000078 .L0 
     /tmp/ccdBt5rw.s:79     .text:000000000000007c .L0 
     /tmp/ccdBt5rw.s:81     .text:0000000000000080 .L0 
     /tmp/ccdBt5rw.s:85     .text:0000000000000084 .L0 
     /tmp/ccdBt5rw.s:90     .text:0000000000000084 .L0 
     /tmp/ccdBt5rw.s:91     .text:0000000000000084 .L0 
     /tmp/ccdBt5rw.s:95     .text:0000000000000094 .L0 
     /tmp/ccdBt5rw.s:96     .text:0000000000000094 .L0 
     /tmp/ccdBt5rw.s:100    .text:00000000000000a4 .L0 
     /tmp/ccdBt5rw.s:101    .text:00000000000000a4 .L0 
     /tmp/ccdBt5rw.s:103    .text:00000000000000a8 .L0 
     /tmp/ccdBt5rw.s:104    .text:00000000000000a8 .L0 
     /tmp/ccdBt5rw.s:106    .text:00000000000000ac .L0 
     /tmp/ccdBt5rw.s:107    .text:00000000000000ac .L0 
     /tmp/ccdBt5rw.s:110    .text:00000000000000b8 .L0 
     /tmp/ccdBt5rw.s:112    .text:00000000000000bc .L0 
     /tmp/ccdBt5rw.s:115    .text:00000000000000c4 .L0 
     /tmp/ccdBt5rw.s:117    .text:00000000000000c8 .L0 
     /tmp/ccdBt5rw.s:119    .text:00000000000000cc .L0 
     /tmp/ccdBt5rw.s:120    .text:00000000000000cc .L0 
     /tmp/ccdBt5rw.s:124    .text:00000000000000d8 .L0 
     /tmp/ccdBt5rw.s:129    .text:00000000000000e0 .L0 
     /tmp/ccdBt5rw.s:9      .text:0000000000000000 _ZN3BufC1Ev
     /tmp/ccdBt5rw.s:137    .text:00000000000000e0 _ZN3Buf3putEc
     /tmp/ccdBt5rw.s:140    .text:00000000000000e0 .L0 
     /tmp/ccdBt5rw.s:142    .text:00000000000000e0 .L0 
     /tmp/ccdBt5rw.s:143    .text:00000000000000e4 .L0 
GAS LISTING /tmp/ccdBt5rw.s 			page 9


     /tmp/ccdBt5rw.s:148    .text:00000000000000f4 .L0 
     /tmp/ccdBt5rw.s:149    .text:00000000000000f4 .L0 
     /tmp/ccdBt5rw.s:150    .text:00000000000000f4 .L0 
     /tmp/ccdBt5rw.s:151    .text:00000000000000f4 .L0 
     /tmp/ccdBt5rw.s:153    .text:00000000000000f8 .L0 
     /tmp/ccdBt5rw.s:157    .text:0000000000000100 .L0 
     /tmp/ccdBt5rw.s:158    .text:0000000000000100 .L0 
     /tmp/ccdBt5rw.s:163    .text:000000000000010c .L0 
     /tmp/ccdBt5rw.s:165    .text:0000000000000110 .L0 
     /tmp/ccdBt5rw.s:167    .text:0000000000000114 .L0 
     /tmp/ccdBt5rw.s:169    .text:0000000000000118 .L0 
     /tmp/ccdBt5rw.s:171    .text:000000000000011c .L0 
     /tmp/ccdBt5rw.s:172    .text:000000000000011c .L0 
     /tmp/ccdBt5rw.s:174    .text:0000000000000120 .L0 
     /tmp/ccdBt5rw.s:176    .text:0000000000000124 .L0 
     /tmp/ccdBt5rw.s:182    .text:0000000000000138 .L0 
     /tmp/ccdBt5rw.s:184    .text:000000000000013c .L0 
     /tmp/ccdBt5rw.s:185    .text:000000000000013c .L0 
     /tmp/ccdBt5rw.s:189    .text:0000000000000148 .L0 
     /tmp/ccdBt5rw.s:190    .text:000000000000014c .L0 
     /tmp/ccdBt5rw.s:192    .text:0000000000000150 .L0 
     /tmp/ccdBt5rw.s:193    .text:0000000000000150 .L0 
     /tmp/ccdBt5rw.s:195    .text:0000000000000154 .L0 
     /tmp/ccdBt5rw.s:198    .text:0000000000000158 .L0 
     /tmp/ccdBt5rw.s:200    .text:000000000000015c .L0 
     /tmp/ccdBt5rw.s:202    .text:0000000000000160 .L0 
     /tmp/ccdBt5rw.s:208    .text:0000000000000160 _ZN3Buf3getEv
     /tmp/ccdBt5rw.s:211    .text:0000000000000160 .L0 
     /tmp/ccdBt5rw.s:213    .text:0000000000000160 .L0 
     /tmp/ccdBt5rw.s:214    .text:0000000000000164 .L0 
     /tmp/ccdBt5rw.s:219    .text:0000000000000174 .L0 
     /tmp/ccdBt5rw.s:220    .text:0000000000000174 .L0 
     /tmp/ccdBt5rw.s:221    .text:0000000000000174 .L0 
     /tmp/ccdBt5rw.s:222    .text:0000000000000174 .L0 
     /tmp/ccdBt5rw.s:224    .text:0000000000000178 .L0 
     /tmp/ccdBt5rw.s:227    .text:000000000000017c .L0 
     /tmp/ccdBt5rw.s:228    .text:000000000000017c .L0 
     /tmp/ccdBt5rw.s:233    .text:0000000000000188 .L0 
     /tmp/ccdBt5rw.s:234    .text:0000000000000188 .L0 
     /tmp/ccdBt5rw.s:236    .text:000000000000018c .L0 
     /tmp/ccdBt5rw.s:238    .text:0000000000000190 .L0 
     /tmp/ccdBt5rw.s:240    .text:0000000000000194 .L0 
     /tmp/ccdBt5rw.s:243    .text:0000000000000198 .L0 
     /tmp/ccdBt5rw.s:244    .text:0000000000000198 .L0 
     /tmp/ccdBt5rw.s:246    .text:000000000000019c .L0 
     /tmp/ccdBt5rw.s:252    .text:00000000000001b0 .L0 
     /tmp/ccdBt5rw.s:254    .text:00000000000001b4 .L0 
     /tmp/ccdBt5rw.s:255    .text:00000000000001b4 .L0 
     /tmp/ccdBt5rw.s:259    .text:00000000000001c0 .L0 
     /tmp/ccdBt5rw.s:260    .text:00000000000001c0 .L0 
     /tmp/ccdBt5rw.s:262    .text:00000000000001c8 .L0 
     /tmp/ccdBt5rw.s:264    .text:00000000000001cc .L0 
     /tmp/ccdBt5rw.s:265    .text:00000000000001cc .L0 
     /tmp/ccdBt5rw.s:267    .text:00000000000001d0 .L0 
     /tmp/ccdBt5rw.s:270    .text:00000000000001d4 .L0 
     /tmp/ccdBt5rw.s:273    .text:00000000000001d8 .L0 
     /tmp/ccdBt5rw.s:275    .text:00000000000001dc .L0 
GAS LISTING /tmp/ccdBt5rw.s 			page 10


     /tmp/ccdBt5rw.s:292    .text:00000000000001dc .L0 
     /tmp/ccdBt5rw.s:39     .text:0000000000000024 .L0 
     /tmp/ccdBt5rw.s:49     .text:0000000000000034 .L0 
     /tmp/ccdBt5rw.s:91     .text:0000000000000084 .L0 
     /tmp/ccdBt5rw.s:96     .text:0000000000000094 .L0 
     /tmp/ccdBt5rw.s:107    .text:00000000000000ac .L0 
     /tmp/ccdBt5rw.s:84     .text:0000000000000084 .L4
     /tmp/ccdBt5rw.s:43     .text:0000000000000030 .L2
     /tmp/ccdBt5rw.s:1380   .debug_abbrev:0000000000000000 .Ldebug_abbrev0
     /tmp/ccdBt5rw.s:2570   .debug_str:000000000000058d .LASF113
     /tmp/ccdBt5rw.s:2522   .debug_str:00000000000003ec .LASF114
     /tmp/ccdBt5rw.s:2426   .debug_str:000000000000014a .LASF115
     /tmp/ccdBt5rw.s:5      .text:0000000000000000 .Ltext0
     /tmp/ccdBt5rw.s:286    .text:00000000000001dc .Letext0
     /tmp/ccdBt5rw.s:2382   .debug_line:0000000000000000 .Ldebug_line0
     /tmp/ccdBt5rw.s:2498   .debug_str:0000000000000352 .LASF0
     /tmp/ccdBt5rw.s:2518   .debug_str:00000000000003d4 .LASF1
     /tmp/ccdBt5rw.s:2482   .debug_str:00000000000002da .LASF2
     /tmp/ccdBt5rw.s:2462   .debug_str:0000000000000263 .LASF4
     /tmp/ccdBt5rw.s:2554   .debug_str:00000000000004ff .LASF3
     /tmp/ccdBt5rw.s:2404   .debug_str:00000000000000ba .LASF5
     /tmp/ccdBt5rw.s:2434   .debug_str:000000000000018e .LASF6
     /tmp/ccdBt5rw.s:2440   .debug_str:00000000000001b0 .LASF7
     /tmp/ccdBt5rw.s:2496   .debug_str:000000000000033f .LASF8
     /tmp/ccdBt5rw.s:2588   .debug_str:00000000000006e5 .LASF9
     /tmp/ccdBt5rw.s:2450   .debug_str:00000000000001fe .LASF10
     /tmp/ccdBt5rw.s:2534   .debug_str:0000000000000454 .LASF11
     /tmp/ccdBt5rw.s:2572   .debug_str:0000000000000651 .LASF12
     /tmp/ccdBt5rw.s:2408   .debug_str:00000000000000c9 .LASF13
     /tmp/ccdBt5rw.s:2390   .debug_str:000000000000003d .LASF14
     /tmp/ccdBt5rw.s:2414   .debug_str:00000000000000f0 .LASF15
     /tmp/ccdBt5rw.s:2548   .debug_str:00000000000004ce .LASF16
     /tmp/ccdBt5rw.s:2428   .debug_str:000000000000016d .LASF17
     /tmp/ccdBt5rw.s:2486   .debug_str:00000000000002fe .LASF34
     /tmp/ccdBt5rw.s:2504   .debug_str:000000000000037d .LASF43
     /tmp/ccdBt5rw.s:2602   .debug_str:000000000000074f .LASF18
     /tmp/ccdBt5rw.s:2620   .debug_str:00000000000007c9 .LASF19
     /tmp/ccdBt5rw.s:2594   .debug_str:0000000000000718 .LASF20
     /tmp/ccdBt5rw.s:2614   .debug_str:000000000000079f .LASF21
     /tmp/ccdBt5rw.s:2604   .debug_str:0000000000000754 .LASF22
     /tmp/ccdBt5rw.s:2592   .debug_str:0000000000000713 .LASF23
     /tmp/ccdBt5rw.s:2542   .debug_str:0000000000000495 .LASF24
     /tmp/ccdBt5rw.s:2530   .debug_str:0000000000000420 .LASF26
     /tmp/ccdBt5rw.s:2552   .debug_str:00000000000004f1 .LASF25
     /tmp/ccdBt5rw.s:2590   .debug_str:00000000000006f5 .LASF27
     /tmp/ccdBt5rw.s:2514   .debug_str:00000000000003bc .LASF65
     /tmp/ccdBt5rw.s:2556   .debug_str:0000000000000511 .LASF28
     /tmp/ccdBt5rw.s:2616   .debug_str:00000000000007a4 .LASF30
     /tmp/ccdBt5rw.s:2536   .debug_str:0000000000000463 .LASF29
     /tmp/ccdBt5rw.s:2624   .debug_str:00000000000007d4 .LASF31
     /tmp/ccdBt5rw.s:2608   .debug_str:000000000000076a .LASF69
     /tmp/ccdBt5rw.s:2576   .debug_str:0000000000000665 .LASF71
     /tmp/ccdBt5rw.s:2444   .debug_str:00000000000001d2 .LASF32
     /tmp/ccdBt5rw.s:2622   .debug_str:00000000000007ce .LASF33
     /tmp/ccdBt5rw.s:2432   .debug_str:0000000000000189 .LASF35
     /tmp/ccdBt5rw.s:2478   .debug_str:00000000000002ce .LASF36
     /tmp/ccdBt5rw.s:2452   .debug_str:000000000000020c .LASF37
GAS LISTING /tmp/ccdBt5rw.s 			page 11


     /tmp/ccdBt5rw.s:2438   .debug_str:00000000000001a1 .LASF38
     /tmp/ccdBt5rw.s:2460   .debug_str:0000000000000259 .LASF61
     /tmp/ccdBt5rw.s:2474   .debug_str:00000000000002b5 .LASF39
     /tmp/ccdBt5rw.s:2402   .debug_str:00000000000000ac .LASF40
     /tmp/ccdBt5rw.s:2584   .debug_str:00000000000006ca .LASF41
     /tmp/ccdBt5rw.s:2528   .debug_str:000000000000041b .LASF42
     /tmp/ccdBt5rw.s:2456   .debug_str:0000000000000225 .LASF44
     /tmp/ccdBt5rw.s:2516   .debug_str:00000000000003cd .LASF45
     /tmp/ccdBt5rw.s:2526   .debug_str:0000000000000402 .LASF57
     /tmp/ccdBt5rw.s:2396   .debug_str:000000000000007d .LASF46
     /tmp/ccdBt5rw.s:2468   .debug_str:000000000000027e .LASF47
     /tmp/ccdBt5rw.s:2508   .debug_str:000000000000038e .LASF48
     /tmp/ccdBt5rw.s:2582   .debug_str:00000000000006c0 .LASF49
     /tmp/ccdBt5rw.s:2502   .debug_str:0000000000000377 .LASF50
     /tmp/ccdBt5rw.s:2466   .debug_str:0000000000000275 .LASF51
     /tmp/ccdBt5rw.s:2384   .debug_str:0000000000000000 .LASF52
     /tmp/ccdBt5rw.s:2386   .debug_str:0000000000000008 .LASF53
     /tmp/ccdBt5rw.s:2564   .debug_str:000000000000054d .LASF54
     /tmp/ccdBt5rw.s:2490   .debug_str:0000000000000313 .LASF55
     /tmp/ccdBt5rw.s:2442   .debug_str:00000000000001c3 .LASF56
     /tmp/ccdBt5rw.s:2510   .debug_str:0000000000000398 .LASF58
     /tmp/ccdBt5rw.s:2612   .debug_str:0000000000000788 .LASF94
     /tmp/ccdBt5rw.s:2420   .debug_str:0000000000000124 .LASF59
     /tmp/ccdBt5rw.s:2458   .debug_str:0000000000000231 .LASF60
     /tmp/ccdBt5rw.s:2562   .debug_str:0000000000000545 .LASF116
     /tmp/ccdBt5rw.s:2558   .debug_str:000000000000051b .LASF117
     /tmp/ccdBt5rw.s:2598   .debug_str:0000000000000738 .LASF62
     /tmp/ccdBt5rw.s:2512   .debug_str:00000000000003b4 .LASF63
     /tmp/ccdBt5rw.s:2464   .debug_str:000000000000026a .LASF64
     /tmp/ccdBt5rw.s:2578   .debug_str:0000000000000682 .LASF66
     /tmp/ccdBt5rw.s:2448   .debug_str:00000000000001ef .LASF67
     /tmp/ccdBt5rw.s:2388   .debug_str:0000000000000014 .LASF68
     /tmp/ccdBt5rw.s:2606   .debug_str:000000000000075d .LASF70
     /tmp/ccdBt5rw.s:2446   .debug_str:00000000000001d7 .LASF72
     /tmp/ccdBt5rw.s:2610   .debug_str:0000000000000777 .LASF86
     /tmp/ccdBt5rw.s:2544   .debug_str:00000000000004a0 .LASF88
     /tmp/ccdBt5rw.s:2400   .debug_str:000000000000009f .LASF73
     /tmp/ccdBt5rw.s:2398   .debug_str:0000000000000085 .LASF74
     /tmp/ccdBt5rw.s:2618   .debug_str:00000000000007bd .LASF75
     /tmp/ccdBt5rw.s:2392   .debug_str:000000000000004d .LASF76
     /tmp/ccdBt5rw.s:2586   .debug_str:00000000000006d8 .LASF77
     /tmp/ccdBt5rw.s:2596   .debug_str:000000000000071d .LASF78
     /tmp/ccdBt5rw.s:2476   .debug_str:00000000000002c1 .LASF79
     /tmp/ccdBt5rw.s:2566   .debug_str:000000000000055c .LASF80
     /tmp/ccdBt5rw.s:2600   .debug_str:0000000000000745 .LASF81
     /tmp/ccdBt5rw.s:2532   .debug_str:0000000000000447 .LASF82
     /tmp/ccdBt5rw.s:2568   .debug_str:0000000000000575 .LASF83
     /tmp/ccdBt5rw.s:2550   .debug_str:00000000000004e4 .LASF84
     /tmp/ccdBt5rw.s:2416   .debug_str:00000000000000fc .LASF85
     /tmp/ccdBt5rw.s:2472   .debug_str:000000000000029c .LASF87
     /tmp/ccdBt5rw.s:2540   .debug_str:0000000000000471 .LASF89
     /tmp/ccdBt5rw.s:2574   .debug_str:0000000000000660 .LASF90
     /tmp/ccdBt5rw.s:2430   .debug_str:0000000000000183 .LASF91
     /tmp/ccdBt5rw.s:2480   .debug_str:00000000000002d3 .LASF92
     /tmp/ccdBt5rw.s:2422   .debug_str:0000000000000132 .LASF93
     /tmp/ccdBt5rw.s:2424   .debug_str:000000000000013e .LASF95
     /tmp/ccdBt5rw.s:2454   .debug_str:000000000000021a .LASF96
GAS LISTING /tmp/ccdBt5rw.s 			page 12


     /tmp/ccdBt5rw.s:2470   .debug_str:0000000000000286 .LASF97
     /tmp/ccdBt5rw.s:2494   .debug_str:0000000000000339 .LASF98
     /tmp/ccdBt5rw.s:2418   .debug_str:0000000000000114 .LASF99
     /tmp/ccdBt5rw.s:2406   .debug_str:00000000000000c1 .LASF100
     /tmp/ccdBt5rw.s:2546   .debug_str:00000000000004bc .LASF101
     /tmp/ccdBt5rw.s:2520   .debug_str:00000000000003e7 .LASF102
     /tmp/ccdBt5rw.s:2488   .debug_str:0000000000000307 .LASF103
     /tmp/ccdBt5rw.s:2524   .debug_str:00000000000003f8 .LASF104
     /tmp/ccdBt5rw.s:2500   .debug_str:000000000000035f .LASF105
     /tmp/ccdBt5rw.s:2412   .debug_str:00000000000000e5 .LASF106
     /tmp/ccdBt5rw.s:2560   .debug_str:000000000000052d .LASF107
     /tmp/ccdBt5rw.s:2492   .debug_str:000000000000032f .LASF108
     /tmp/ccdBt5rw.s:2484   .debug_str:00000000000002e8 .LASF109
     /tmp/ccdBt5rw.s:2410   .debug_str:00000000000000d9 .LASF110
     /tmp/ccdBt5rw.s:2394   .debug_str:0000000000000064 .LASF111
     /tmp/ccdBt5rw.s:209    .text:0000000000000160 .LFB23
     /tmp/ccdBt5rw.s:276    .text:00000000000001dc .LFE23
     /tmp/ccdBt5rw.s:2538   .debug_str:000000000000046c .LASF112
     /tmp/ccdBt5rw.s:2278   .debug_loc:0000000000000000 .LLST3
     /tmp/ccdBt5rw.s:2296   .debug_loc:000000000000004c .LLST4
     /tmp/ccdBt5rw.s:231    .text:0000000000000188 .LVL15
     /tmp/ccdBt5rw.s:257    .text:00000000000001c0 .LVL17
     /tmp/ccdBt5rw.s:138    .text:00000000000000e0 .LFB22
     /tmp/ccdBt5rw.s:203    .text:0000000000000160 .LFE22
     /tmp/ccdBt5rw.s:2307   .debug_loc:0000000000000082 .LLST1
     /tmp/ccdBt5rw.s:2325   .debug_loc:00000000000000ce .LLST2
     /tmp/ccdBt5rw.s:161    .text:000000000000010c .LVL10
     /tmp/ccdBt5rw.s:187    .text:0000000000000148 .LVL11
     /tmp/ccdBt5rw.s:2436   .debug_str:0000000000000195 .LASF118
     /tmp/ccdBt5rw.s:10     .text:0000000000000000 .LFB20
     /tmp/ccdBt5rw.s:130    .text:00000000000000e0 .LFE20
     /tmp/ccdBt5rw.s:2339   .debug_loc:0000000000000107 .LLST0
     /tmp/ccdBt5rw.s:33     .text:0000000000000024 .LBB6
     /tmp/ccdBt5rw.s:2374   .debug_ranges:0000000000000000 .Ldebug_ranges0
     /tmp/ccdBt5rw.s:122    .text:00000000000000d8 .LVL7
     /tmp/ccdBt5rw.s:51     .text:0000000000000044 .LVL2
     /tmp/ccdBt5rw.s:59     .text:0000000000000058 .LVL3
     /tmp/ccdBt5rw.s:66     .text:000000000000006c .LVL4
     /tmp/ccdBt5rw.s:2506   .debug_str:0000000000000385 .LASF119
     /tmp/ccdBt5rw.s:2580   .debug_str:0000000000000698 .LASF120
     /tmp/ccdBt5rw.s:212    .text:0000000000000160 .LVL13
     /tmp/ccdBt5rw.s:229    .text:0000000000000180 .LVL14
     /tmp/ccdBt5rw.s:268    .text:00000000000001d0 .LVL18
     /tmp/ccdBt5rw.s:241    .text:0000000000000198 .LVL16
     /tmp/ccdBt5rw.s:271    .text:00000000000001d4 .LVL19
     /tmp/ccdBt5rw.s:141    .text:00000000000000e0 .LVL8
     /tmp/ccdBt5rw.s:159    .text:0000000000000104 .LVL9
     /tmp/ccdBt5rw.s:196    .text:0000000000000154 .LVL12
     /tmp/ccdBt5rw.s:14     .text:0000000000000000 .LVL0
     /tmp/ccdBt5rw.s:42     .text:0000000000000030 .LVL1
     /tmp/ccdBt5rw.s:77     .text:0000000000000078 .LVL5
     /tmp/ccdBt5rw.s:83     .text:0000000000000084 .LVL6
     /tmp/ccdBt5rw.s:293    .debug_info:0000000000000000 .Ldebug_info0
     /tmp/ccdBt5rw.s:46     .text:0000000000000030 .LBE6
     /tmp/ccdBt5rw.s:87     .text:0000000000000084 .LBB9
     /tmp/ccdBt5rw.s:127    .text:00000000000000e0 .LBE9

GAS LISTING /tmp/ccdBt5rw.s 			page 13


UNDEFINED SYMBOLS
_ZN8MemAlloc9mem_allocEm
_ZN3Sem9_sem_openEPPS_j
HEAP_START_ADDR
HEAP_END_ADDR
_ZN8MemAlloc13bytesToBlocksEm
_ZN3Sem9_sem_waitEPS_
_ZN3Sem11_sem_signalEPS_
