GAS LISTING /tmp/ccmwefJD.s 			page 1


   1              		.file	"Con.cpp"
   2              		.option pic
   3              		.option norelax
   4              		.text
   5              	.Ltext0:
   6              		.align	2
   7              		.globl	_ZN3Con5putcOEc
   9              	_ZN3Con5putcOEc:
  10              	.LFB19:
  11              		.file 1 "src/Con.cpp"
   1:src/Con.cpp   **** //
   2:src/Con.cpp   **** // Created by os on 8/16/23.
   3:src/Con.cpp   **** //
   4:src/Con.cpp   **** #include "../h/Con.h"
   5:src/Con.cpp   **** 
   6:src/Con.cpp   **** void Con::putcO(char c){outputBuf->put(c);}
  12              		.loc 1 6 24
  13              		.cfi_startproc
  14              	.LVL0:
  15 0000 130101FF 		addi	sp,sp,-16
  16              		.cfi_def_cfa_offset 16
  17 0004 23341100 		sd	ra,8(sp)
  18 0008 23308100 		sd	s0,0(sp)
  19              		.cfi_offset 1, -8
  20              		.cfi_offset 8, -16
  21 000c 13040101 		addi	s0,sp,16
  22              		.cfi_def_cfa 8, 0
  23              		.loc 1 6 25
  24              		.loc 1 6 39 is_stmt 0
  25 0010 03358500 		ld	a0,8(a0)
  26              	.LVL1:
  27 0014 97000000 		call	_ZN3Buf3putEc@plt
  27      E7800000 
  28              	.LVL2:
  29              		.loc 1 6 43
  30 001c 83308100 		ld	ra,8(sp)
  31              		.cfi_restore 1
  32 0020 03340100 		ld	s0,0(sp)
  33              		.cfi_restore 8
  34              		.cfi_def_cfa 2, 16
  35 0024 13010101 		addi	sp,sp,16
  36              		.cfi_def_cfa_offset 0
  37 0028 67800000 		jr	ra
  38              		.cfi_endproc
  39              	.LFE19:
  41              		.align	2
  42              		.globl	_ZN3Con5putcIEc
  44              	_ZN3Con5putcIEc:
  45              	.LFB20:
   7:src/Con.cpp   **** void Con::putcI(char c){inputBuf->put(c);}
  46              		.loc 1 7 24 is_stmt 1
  47              		.cfi_startproc
  48              	.LVL3:
  49 002c 130101FF 		addi	sp,sp,-16
  50              		.cfi_def_cfa_offset 16
  51 0030 23341100 		sd	ra,8(sp)
  52 0034 23308100 		sd	s0,0(sp)
GAS LISTING /tmp/ccmwefJD.s 			page 2


  53              		.cfi_offset 1, -8
  54              		.cfi_offset 8, -16
  55 0038 13040101 		addi	s0,sp,16
  56              		.cfi_def_cfa 8, 0
  57              		.loc 1 7 25
  58              		.loc 1 7 38 is_stmt 0
  59 003c 03350500 		ld	a0,0(a0)
  60              	.LVL4:
  61 0040 97000000 		call	_ZN3Buf3putEc@plt
  61      E7800000 
  62              	.LVL5:
  63              		.loc 1 7 42
  64 0048 83308100 		ld	ra,8(sp)
  65              		.cfi_restore 1
  66 004c 03340100 		ld	s0,0(sp)
  67              		.cfi_restore 8
  68              		.cfi_def_cfa 2, 16
  69 0050 13010101 		addi	sp,sp,16
  70              		.cfi_def_cfa_offset 0
  71 0054 67800000 		jr	ra
  72              		.cfi_endproc
  73              	.LFE20:
  75              		.align	2
  76              		.globl	_ZN3Con5getcOEv
  78              	_ZN3Con5getcOEv:
  79              	.LFB21:
   8:src/Con.cpp   **** char Con::getcO(){ return outputBuf->get();}
  80              		.loc 1 8 18 is_stmt 1
  81              		.cfi_startproc
  82              	.LVL6:
  83 0058 130101FF 		addi	sp,sp,-16
  84              		.cfi_def_cfa_offset 16
  85 005c 23341100 		sd	ra,8(sp)
  86 0060 23308100 		sd	s0,0(sp)
  87              		.cfi_offset 1, -8
  88              		.cfi_offset 8, -16
  89 0064 13040101 		addi	s0,sp,16
  90              		.cfi_def_cfa 8, 0
  91              		.loc 1 8 20
  92              		.loc 1 8 41 is_stmt 0
  93 0068 03358500 		ld	a0,8(a0)
  94              	.LVL7:
  95 006c 97000000 		call	_ZN3Buf3getEv@plt
  95      E7800000 
  96              	.LVL8:
  97              		.loc 1 8 44
  98 0074 83308100 		ld	ra,8(sp)
  99              		.cfi_restore 1
 100 0078 03340100 		ld	s0,0(sp)
 101              		.cfi_restore 8
 102              		.cfi_def_cfa 2, 16
 103 007c 13010101 		addi	sp,sp,16
 104              		.cfi_def_cfa_offset 0
 105 0080 67800000 		jr	ra
 106              		.cfi_endproc
 107              	.LFE21:
 109              		.align	2
GAS LISTING /tmp/ccmwefJD.s 			page 3


 110              		.globl	_ZN3Con5getcIEv
 112              	_ZN3Con5getcIEv:
 113              	.LFB22:
   9:src/Con.cpp   **** char Con::getcI(){ return inputBuf->get();}
 114              		.loc 1 9 18 is_stmt 1
 115              		.cfi_startproc
 116              	.LVL9:
 117 0084 130101FF 		addi	sp,sp,-16
 118              		.cfi_def_cfa_offset 16
 119 0088 23341100 		sd	ra,8(sp)
 120 008c 23308100 		sd	s0,0(sp)
 121              		.cfi_offset 1, -8
 122              		.cfi_offset 8, -16
 123 0090 13040101 		addi	s0,sp,16
 124              		.cfi_def_cfa 8, 0
 125              		.loc 1 9 20
 126              		.loc 1 9 40 is_stmt 0
 127 0094 03350500 		ld	a0,0(a0)
 128              	.LVL10:
 129 0098 97000000 		call	_ZN3Buf3getEv@plt
 129      E7800000 
 130              	.LVL11:
 131              		.loc 1 9 43
 132 00a0 83308100 		ld	ra,8(sp)
 133              		.cfi_restore 1
 134 00a4 03340100 		ld	s0,0(sp)
 135              		.cfi_restore 8
 136              		.cfi_def_cfa 2, 16
 137 00a8 13010101 		addi	sp,sp,16
 138              		.cfi_def_cfa_offset 0
 139 00ac 67800000 		jr	ra
 140              		.cfi_endproc
 141              	.LFE22:
 143              		.align	2
 144              		.globl	_ZN3Con18getConsoleInstanceEv
 146              	_ZN3Con18getConsoleInstanceEv:
 147              	.LFB23:
  10:src/Con.cpp   **** Con& Con::getConsoleInstance(){
 148              		.loc 1 10 31 is_stmt 1
 149              		.cfi_startproc
  11:src/Con.cpp   ****     static Con instance;
 150              		.loc 1 11 5
  12:src/Con.cpp   ****     if(first){
 151              		.loc 1 12 5
 152 00b0 97070000 		lbu	a5,.LANCHOR0
 152      83C70700 
 153 00b8 63980700 		bnez	a5,.L17
  13:src/Con.cpp   ****         first=false;
  14:src/Con.cpp   ****         instance.inputBuf= (Buf*)MemAlloc::getAllocator().mem_alloc((sizeof(Buf)+MEM_BLOCK_SIZE-1)/
  15:src/Con.cpp   ****         instance.outputBuf=(Buf*)MemAlloc::getAllocator().mem_alloc((sizeof(Buf)+MEM_BLOCK_SIZE-1)/
  16:src/Con.cpp   ****         *instance.inputBuf=Buf();
  17:src/Con.cpp   ****         *instance.outputBuf=Buf();
  18:src/Con.cpp   ****     }
  19:src/Con.cpp   ****     return instance;
 154              		.loc 1 19 5
  20:src/Con.cpp   **** }
 155              		.loc 1 20 1 is_stmt 0
GAS LISTING /tmp/ccmwefJD.s 			page 4


 156 00bc 17050000 		lla	a0,.LANCHOR1
 156      13050500 
 157 00c4 67800000 		ret
 158              	.L17:
  10:src/Con.cpp   ****     static Con instance;
 159              		.loc 1 10 31
 160 00c8 130101FC 		addi	sp,sp,-64
 161              		.cfi_def_cfa_offset 64
 162 00cc 233C1102 		sd	ra,56(sp)
 163 00d0 23388102 		sd	s0,48(sp)
 164 00d4 23349102 		sd	s1,40(sp)
 165 00d8 23302103 		sd	s2,32(sp)
 166              		.cfi_offset 1, -8
 167              		.cfi_offset 8, -16
 168              		.cfi_offset 9, -24
 169              		.cfi_offset 18, -32
 170 00dc 13040104 		addi	s0,sp,64
 171              		.cfi_def_cfa 8, 0
  13:src/Con.cpp   ****         first=false;
 172              		.loc 1 13 9 is_stmt 1
  13:src/Con.cpp   ****         first=false;
 173              		.loc 1 13 14 is_stmt 0
 174 00e0 97070000 		sb	zero,.LANCHOR0,a5
 174      23800700 
  14:src/Con.cpp   ****         instance.outputBuf=(Buf*)MemAlloc::getAllocator().mem_alloc((sizeof(Buf)+MEM_BLOCK_SIZE-1)/
 175              		.loc 1 14 9 is_stmt 1
 176              	.LBB6:
 177              	.LBB7:
 178              		.file 2 "src/../h/MemoryAllocator.h"
   1:src/../h/MemoryAllocator.h **** //
   2:src/../h/MemoryAllocator.h **** // Created by os on 8/3/23.
   3:src/../h/MemoryAllocator.h **** //
   4:src/../h/MemoryAllocator.h **** 
   5:src/../h/MemoryAllocator.h **** #ifndef PROJECT_BASE_V1_1_MEMORYALLOCATOR_H
   6:src/../h/MemoryAllocator.h **** #define PROJECT_BASE_V1_1_MEMORYALLOCATOR_H
   7:src/../h/MemoryAllocator.h **** #include "../lib/hw.h"
   8:src/../h/MemoryAllocator.h **** 
   9:src/../h/MemoryAllocator.h **** class MemAlloc{
  10:src/../h/MemoryAllocator.h ****     struct FreeSeg{
  11:src/../h/MemoryAllocator.h ****         FreeSeg* prev;
  12:src/../h/MemoryAllocator.h ****         FreeSeg* next;
  13:src/../h/MemoryAllocator.h ****         size_t szBl;
  14:src/../h/MemoryAllocator.h ****         size_t szBy;
  15:src/../h/MemoryAllocator.h ****     };
  16:src/../h/MemoryAllocator.h ****     FreeSeg* headFree= nullptr;
  17:src/../h/MemoryAllocator.h ****     bool flag=false;
  18:src/../h/MemoryAllocator.h ****     void tryToMerge(FreeSeg*);
  19:src/../h/MemoryAllocator.h ****     static size_t  bytesToBlocks(size_t s);
  20:src/../h/MemoryAllocator.h ****     MemAlloc()=default;
  21:src/../h/MemoryAllocator.h **** public:
  22:src/../h/MemoryAllocator.h ****     void* mem_alloc(size_t);
  23:src/../h/MemoryAllocator.h ****     int mem_free(void*);
  24:src/../h/MemoryAllocator.h ****     static MemAlloc& getAllocator(){
  25:src/../h/MemoryAllocator.h ****         static MemAlloc instance;
 179              		.loc 2 25 9
  26:src/../h/MemoryAllocator.h ****         if(!instance.flag){
 180              		.loc 2 26 9
GAS LISTING /tmp/ccmwefJD.s 			page 5


 181              		.loc 2 26 22 is_stmt 0
 182 00e8 97070000 		lbu	a5,_ZZN8MemAlloc12getAllocatorEvE8instance+8
 182      83C70700 
 183              		.loc 2 26 9
 184 00f0 6388070C 		beqz	a5,.L18
 185              	.L11:
  27:src/../h/MemoryAllocator.h ****             instance.flag=true;
  28:src/../h/MemoryAllocator.h ****             instance.headFree=(FreeSeg*)HEAP_START_ADDR;
  29:src/../h/MemoryAllocator.h ****             instance.headFree->next= nullptr;
  30:src/../h/MemoryAllocator.h ****             instance.headFree->prev= nullptr;
  31:src/../h/MemoryAllocator.h ****             instance.headFree->szBy=(uint64)((uint64*)HEAP_END_ADDR-(uint64*)HEAP_START_ADDR);
  32:src/../h/MemoryAllocator.h ****             instance.headFree->szBl=bytesToBlocks(instance.headFree->szBy-sizeof(FreeSeg));
  33:src/../h/MemoryAllocator.h ****         }
  34:src/../h/MemoryAllocator.h ****         return instance;
 186              		.loc 2 34 9 is_stmt 1
 187              	.LBE7:
 188              	.LBE6:
  14:src/Con.cpp   ****         instance.outputBuf=(Buf*)MemAlloc::getAllocator().mem_alloc((sizeof(Buf)+MEM_BLOCK_SIZE-1)/
 189              		.loc 1 14 68 is_stmt 0
 190 00f4 93051000 		li	a1,1
 191 00f8 17050000 		lla	a0,_ZZN8MemAlloc12getAllocatorEvE8instance
 191      13050500 
 192 0100 97000000 		call	_ZN8MemAlloc9mem_allocEm@plt
 192      E7800000 
 193              	.LVL12:
  14:src/Con.cpp   ****         instance.outputBuf=(Buf*)MemAlloc::getAllocator().mem_alloc((sizeof(Buf)+MEM_BLOCK_SIZE-1)/
 194              		.loc 1 14 26
 195 0108 97070000 		sd	a0,.LANCHOR1,a5
 195      23B0A700 
  15:src/Con.cpp   ****         *instance.inputBuf=Buf();
 196              		.loc 1 15 9 is_stmt 1
 197              	.LBB9:
 198              	.LBB10:
  25:src/../h/MemoryAllocator.h ****         if(!instance.flag){
 199              		.loc 2 25 9
  26:src/../h/MemoryAllocator.h ****             instance.flag=true;
 200              		.loc 2 26 9
  26:src/../h/MemoryAllocator.h ****             instance.flag=true;
 201              		.loc 2 26 22 is_stmt 0
 202 0110 97070000 		lbu	a5,_ZZN8MemAlloc12getAllocatorEvE8instance+8
 202      83C70700 
  26:src/../h/MemoryAllocator.h ****             instance.flag=true;
 203              		.loc 2 26 9
 204 0118 63820710 		beqz	a5,.L19
 205              	.L12:
 206              		.loc 2 34 9 is_stmt 1
 207              	.LBE10:
 208              	.LBE9:
  15:src/Con.cpp   ****         *instance.inputBuf=Buf();
 209              		.loc 1 15 68 is_stmt 0
 210 011c 93051000 		li	a1,1
 211 0120 17050000 		lla	a0,_ZZN8MemAlloc12getAllocatorEvE8instance
 211      13050500 
 212 0128 97000000 		call	_ZN8MemAlloc9mem_allocEm@plt
 212      E7800000 
 213              	.LVL13:
  15:src/Con.cpp   ****         *instance.inputBuf=Buf();
GAS LISTING /tmp/ccmwefJD.s 			page 6


 214              		.loc 1 15 27
 215 0130 97040000 		lla	s1,.LANCHOR1
 215      93840400 
 216 0138 23B4A400 		sd	a0,8(s1)
  16:src/Con.cpp   ****         *instance.outputBuf=Buf();
 217              		.loc 1 16 9 is_stmt 1
  16:src/Con.cpp   ****         *instance.outputBuf=Buf();
 218              		.loc 1 16 28 is_stmt 0
 219 013c 130904FC 		addi	s2,s0,-64
 220 0140 13050900 		mv	a0,s2
 221 0144 97000000 		call	_ZN3BufC1Ev@plt
 221      E7800000 
 222              	.LVL14:
  16:src/Con.cpp   ****         *instance.outputBuf=Buf();
 223              		.loc 1 16 19
 224 014c 83B70400 		ld	a5,0(s1)
  16:src/Con.cpp   ****         *instance.outputBuf=Buf();
 225              		.loc 1 16 27
 226 0150 033684FC 		ld	a2,-56(s0)
 227 0154 833604FD 		ld	a3,-48(s0)
 228 0158 033784FD 		ld	a4,-40(s0)
 229 015c 833504FC 		ld	a1,-64(s0)
 230 0160 23B0B700 		sd	a1,0(a5)
 231 0164 23B4C700 		sd	a2,8(a5)
 232 0168 23B8D700 		sd	a3,16(a5)
 233 016c 23BCE700 		sd	a4,24(a5)
  17:src/Con.cpp   ****     }
 234              		.loc 1 17 9 is_stmt 1
  17:src/Con.cpp   ****     }
 235              		.loc 1 17 29 is_stmt 0
 236 0170 13050900 		mv	a0,s2
 237 0174 97000000 		call	_ZN3BufC1Ev@plt
 237      E7800000 
 238              	.LVL15:
  17:src/Con.cpp   ****     }
 239              		.loc 1 17 19
 240 017c 83B78400 		ld	a5,8(s1)
  17:src/Con.cpp   ****     }
 241              		.loc 1 17 28
 242 0180 033684FC 		ld	a2,-56(s0)
 243 0184 833604FD 		ld	a3,-48(s0)
 244 0188 033784FD 		ld	a4,-40(s0)
 245 018c 833504FC 		ld	a1,-64(s0)
 246 0190 23B0B700 		sd	a1,0(a5)
 247 0194 23B4C700 		sd	a2,8(a5)
 248 0198 23B8D700 		sd	a3,16(a5)
 249 019c 23BCE700 		sd	a4,24(a5)
  19:src/Con.cpp   **** }
 250              		.loc 1 19 5 is_stmt 1
 251              		.loc 1 20 1 is_stmt 0
 252 01a0 17050000 		lla	a0,.LANCHOR1
 252      13050500 
 253 01a8 83308103 		ld	ra,56(sp)
 254              		.cfi_remember_state
 255              		.cfi_restore 1
 256 01ac 03340103 		ld	s0,48(sp)
 257              		.cfi_restore 8
GAS LISTING /tmp/ccmwefJD.s 			page 7


 258              		.cfi_def_cfa 2, 64
 259 01b0 83348102 		ld	s1,40(sp)
 260              		.cfi_restore 9
 261 01b4 03390102 		ld	s2,32(sp)
 262              		.cfi_restore 18
 263 01b8 13010104 		addi	sp,sp,64
 264              		.cfi_def_cfa_offset 0
 265 01bc 67800000 		jr	ra
 266              	.L18:
 267              		.cfi_restore_state
 268              	.LBB12:
 269              	.LBB8:
  27:src/../h/MemoryAllocator.h ****             instance.headFree=(FreeSeg*)HEAP_START_ADDR;
 270              		.loc 2 27 13 is_stmt 1
  27:src/../h/MemoryAllocator.h ****             instance.headFree=(FreeSeg*)HEAP_START_ADDR;
 271              		.loc 2 27 26 is_stmt 0
 272 01c0 97070000 		lla	a5,_ZZN8MemAlloc12getAllocatorEvE8instance
 272      93870700 
 273 01c8 13071000 		li	a4,1
 274 01cc 2384E700 		sb	a4,8(a5)
  28:src/../h/MemoryAllocator.h ****             instance.headFree->next= nullptr;
 275              		.loc 2 28 13 is_stmt 1
  28:src/../h/MemoryAllocator.h ****             instance.headFree->next= nullptr;
 276              		.loc 2 28 30 is_stmt 0
 277 01d0 97060000 		la	a3,HEAP_START_ADDR
 277      83B60600 
 278 01d8 03B70600 		ld	a4,0(a3)
 279 01dc 23B0E700 		sd	a4,0(a5)
  29:src/../h/MemoryAllocator.h ****             instance.headFree->prev= nullptr;
 280              		.loc 2 29 13 is_stmt 1
  29:src/../h/MemoryAllocator.h ****             instance.headFree->prev= nullptr;
 281              		.loc 2 29 36 is_stmt 0
 282 01e0 23340700 		sd	zero,8(a4)
  30:src/../h/MemoryAllocator.h ****             instance.headFree->szBy=(uint64)((uint64*)HEAP_END_ADDR-(uint64*)HEAP_START_ADDR);
 283              		.loc 2 30 13 is_stmt 1
  30:src/../h/MemoryAllocator.h ****             instance.headFree->szBy=(uint64)((uint64*)HEAP_END_ADDR-(uint64*)HEAP_START_ADDR);
 284              		.loc 2 30 36 is_stmt 0
 285 01e4 23300700 		sd	zero,0(a4)
  31:src/../h/MemoryAllocator.h ****             instance.headFree->szBl=bytesToBlocks(instance.headFree->szBy-sizeof(FreeSeg));
 286              		.loc 2 31 13 is_stmt 1
  31:src/../h/MemoryAllocator.h ****             instance.headFree->szBl=bytesToBlocks(instance.headFree->szBy-sizeof(FreeSeg));
 287              		.loc 2 31 46 is_stmt 0
 288 01e8 17070000 		la	a4,HEAP_END_ADDR
 288      03370700 
 289 01f0 03350700 		ld	a0,0(a4)
  31:src/../h/MemoryAllocator.h ****             instance.headFree->szBl=bytesToBlocks(instance.headFree->szBy-sizeof(FreeSeg));
 290              		.loc 2 31 69
 291 01f4 03B70600 		ld	a4,0(a3)
  31:src/../h/MemoryAllocator.h ****             instance.headFree->szBl=bytesToBlocks(instance.headFree->szBy-sizeof(FreeSeg));
 292              		.loc 2 31 68
 293 01f8 3305E540 		sub	a0,a0,a4
 294 01fc 13553540 		srai	a0,a0,3
  31:src/../h/MemoryAllocator.h ****             instance.headFree->szBl=bytesToBlocks(instance.headFree->szBy-sizeof(FreeSeg));
 295              		.loc 2 31 22
 296 0200 83B40700 		ld	s1,0(a5)
  31:src/../h/MemoryAllocator.h ****             instance.headFree->szBl=bytesToBlocks(instance.headFree->szBy-sizeof(FreeSeg));
 297              		.loc 2 31 36
GAS LISTING /tmp/ccmwefJD.s 			page 8


 298 0204 23BCA400 		sd	a0,24(s1)
  32:src/../h/MemoryAllocator.h ****         }
 299              		.loc 2 32 13 is_stmt 1
  32:src/../h/MemoryAllocator.h ****         }
 300              		.loc 2 32 50 is_stmt 0
 301 0208 130505FE 		addi	a0,a0,-32
 302 020c 97000000 		call	_ZN8MemAlloc13bytesToBlocksEm@plt
 302      E7800000 
 303              	.LVL16:
  32:src/../h/MemoryAllocator.h ****         }
 304              		.loc 2 32 36
 305 0214 23B8A400 		sd	a0,16(s1)
 306 0218 6FF0DFED 		j	.L11
 307              	.L19:
 308              	.LBE8:
 309              	.LBE12:
 310              	.LBB13:
 311              	.LBB11:
  27:src/../h/MemoryAllocator.h ****             instance.headFree=(FreeSeg*)HEAP_START_ADDR;
 312              		.loc 2 27 13 is_stmt 1
  27:src/../h/MemoryAllocator.h ****             instance.headFree=(FreeSeg*)HEAP_START_ADDR;
 313              		.loc 2 27 26 is_stmt 0
 314 021c 97070000 		lla	a5,_ZZN8MemAlloc12getAllocatorEvE8instance
 314      93870700 
 315 0224 13071000 		li	a4,1
 316 0228 2384E700 		sb	a4,8(a5)
  28:src/../h/MemoryAllocator.h ****             instance.headFree->next= nullptr;
 317              		.loc 2 28 13 is_stmt 1
  28:src/../h/MemoryAllocator.h ****             instance.headFree->next= nullptr;
 318              		.loc 2 28 30 is_stmt 0
 319 022c 97060000 		la	a3,HEAP_START_ADDR
 319      83B60600 
 320 0234 03B70600 		ld	a4,0(a3)
 321 0238 23B0E700 		sd	a4,0(a5)
  29:src/../h/MemoryAllocator.h ****             instance.headFree->prev= nullptr;
 322              		.loc 2 29 13 is_stmt 1
  29:src/../h/MemoryAllocator.h ****             instance.headFree->prev= nullptr;
 323              		.loc 2 29 36 is_stmt 0
 324 023c 23340700 		sd	zero,8(a4)
  30:src/../h/MemoryAllocator.h ****             instance.headFree->szBy=(uint64)((uint64*)HEAP_END_ADDR-(uint64*)HEAP_START_ADDR);
 325              		.loc 2 30 13 is_stmt 1
  30:src/../h/MemoryAllocator.h ****             instance.headFree->szBy=(uint64)((uint64*)HEAP_END_ADDR-(uint64*)HEAP_START_ADDR);
 326              		.loc 2 30 36 is_stmt 0
 327 0240 23300700 		sd	zero,0(a4)
  31:src/../h/MemoryAllocator.h ****             instance.headFree->szBl=bytesToBlocks(instance.headFree->szBy-sizeof(FreeSeg));
 328              		.loc 2 31 13 is_stmt 1
  31:src/../h/MemoryAllocator.h ****             instance.headFree->szBl=bytesToBlocks(instance.headFree->szBy-sizeof(FreeSeg));
 329              		.loc 2 31 46 is_stmt 0
 330 0244 17070000 		la	a4,HEAP_END_ADDR
 330      03370700 
 331 024c 03350700 		ld	a0,0(a4)
  31:src/../h/MemoryAllocator.h ****             instance.headFree->szBl=bytesToBlocks(instance.headFree->szBy-sizeof(FreeSeg));
 332              		.loc 2 31 69
 333 0250 03B70600 		ld	a4,0(a3)
  31:src/../h/MemoryAllocator.h ****             instance.headFree->szBl=bytesToBlocks(instance.headFree->szBy-sizeof(FreeSeg));
 334              		.loc 2 31 68
 335 0254 3305E540 		sub	a0,a0,a4
GAS LISTING /tmp/ccmwefJD.s 			page 9


 336 0258 13553540 		srai	a0,a0,3
  31:src/../h/MemoryAllocator.h ****             instance.headFree->szBl=bytesToBlocks(instance.headFree->szBy-sizeof(FreeSeg));
 337              		.loc 2 31 22
 338 025c 83B40700 		ld	s1,0(a5)
  31:src/../h/MemoryAllocator.h ****             instance.headFree->szBl=bytesToBlocks(instance.headFree->szBy-sizeof(FreeSeg));
 339              		.loc 2 31 36
 340 0260 23BCA400 		sd	a0,24(s1)
  32:src/../h/MemoryAllocator.h ****         }
 341              		.loc 2 32 13 is_stmt 1
  32:src/../h/MemoryAllocator.h ****         }
 342              		.loc 2 32 50 is_stmt 0
 343 0264 130505FE 		addi	a0,a0,-32
 344 0268 97000000 		call	_ZN8MemAlloc13bytesToBlocksEm@plt
 344      E7800000 
 345              	.LVL17:
  32:src/../h/MemoryAllocator.h ****         }
 346              		.loc 2 32 36
 347 0270 23B8A400 		sd	a0,16(s1)
 348 0274 6FF09FEA 		j	.L12
 349              	.LBE11:
 350              	.LBE13:
 351              		.cfi_endproc
 352              	.LFE23:
 354              		.weak	_ZZN8MemAlloc12getAllocatorEvE8instance
 355              		.section	.bss._ZZN8MemAlloc12getAllocatorEvE8instance,"awG",@nobits,_ZZN8MemAlloc12getAllocatorEvE
 356              		.align	3
 359              	_ZZN8MemAlloc12getAllocatorEvE8instance:
 360 0000 00000000 		.zero	16
 360      00000000 
 360      00000000 
 360      00000000 
 361              		.data
 362              		.set	.LANCHOR0,. + 0
 365              	_ZL5first:
 366 0000 01       		.byte	1
 367              		.bss
 368              		.align	3
 369              		.set	.LANCHOR1,. + 0
 372              	_ZZN3Con18getConsoleInstanceEvE8instance:
 373 0000 00000000 		.zero	16
 373      00000000 
 373      00000000 
 373      00000000 
 374              		.text
 375              	.Letext0:
 376              		.file 3 "src/../h/../lib/hw.h"
 377              		.file 4 "src/../h/TCB.h"
 378              		.file 5 "src/../h/Sem.h"
 379              		.file 6 "src/../h/Buf.h"
 380              		.file 7 "src/../h/Con.h"
GAS LISTING /tmp/ccmwefJD.s 			page 10

