GAS LISTING /tmp/ccltO3Z2.s 			page 1


   1              		.file	"Scheduler.cpp"
   2              		.option pic
   3              		.option norelax
   4              		.text
   5              	.Ltext0:
   6              		.align	2
   7              		.globl	_ZN9Scheduler3putEP3TCB
   9              	_ZN9Scheduler3putEP3TCB:
  10              	.LFB19:
  11              		.file 1 "src/Scheduler.cpp"
   1:src/Scheduler.cpp **** //
   2:src/Scheduler.cpp **** // Created by os on 8/6/23.
   3:src/Scheduler.cpp **** //
   4:src/Scheduler.cpp **** 
   5:src/Scheduler.cpp **** #include "../h/Scheduler.h"
   6:src/Scheduler.cpp **** 
   7:src/Scheduler.cpp **** Elem* Scheduler::head=nullptr;
   8:src/Scheduler.cpp **** 
   9:src/Scheduler.cpp **** void Scheduler::put(TCB *t) {
  12              		.loc 1 9 29
  13              		.cfi_startproc
  14              	.LVL0:
  15 0000 130101FE 		addi	sp,sp,-32
  16              		.cfi_def_cfa_offset 32
  17 0004 233C1100 		sd	ra,24(sp)
  18 0008 23388100 		sd	s0,16(sp)
  19 000c 23349100 		sd	s1,8(sp)
  20 0010 23302101 		sd	s2,0(sp)
  21              		.cfi_offset 1, -8
  22              		.cfi_offset 8, -16
  23              		.cfi_offset 9, -24
  24              		.cfi_offset 18, -32
  25 0014 13040102 		addi	s0,sp,32
  26              		.cfi_def_cfa 8, 0
  27 0018 93040500 		mv	s1,a0
  10:src/Scheduler.cpp ****     Elem* novi=(Elem*)MemAlloc::getAllocator().mem_alloc((sizeof(Elem)+MEM_BLOCK_SIZE-1)/MEM_BLOCK_
  28              		.loc 1 10 5
  29              	.LBB6:
  30              	.LBB7:
  31              		.file 2 "src/../h/MemoryAllocator.h"
   1:src/../h/MemoryAllocator.h **** //
   2:src/../h/MemoryAllocator.h **** // Created by os on 8/3/23.
   3:src/../h/MemoryAllocator.h **** //
   4:src/../h/MemoryAllocator.h **** 
   5:src/../h/MemoryAllocator.h **** #ifndef PROJECT_BASE_V1_1_MEMORYALLOCATOR_H
   6:src/../h/MemoryAllocator.h **** #define PROJECT_BASE_V1_1_MEMORYALLOCATOR_H
   7:src/../h/MemoryAllocator.h **** #include "../lib/hw.h"
   8:src/../h/MemoryAllocator.h **** 
   9:src/../h/MemoryAllocator.h **** class MemAlloc{
  10:src/../h/MemoryAllocator.h ****     struct FreeSeg{
  11:src/../h/MemoryAllocator.h ****         FreeSeg* prev;
  12:src/../h/MemoryAllocator.h ****         FreeSeg* next;
  13:src/../h/MemoryAllocator.h ****         size_t szBl;
  14:src/../h/MemoryAllocator.h ****         size_t szBy;
  15:src/../h/MemoryAllocator.h ****     };
  16:src/../h/MemoryAllocator.h ****     FreeSeg* headFree= nullptr;
  17:src/../h/MemoryAllocator.h ****     bool flag=false;
GAS LISTING /tmp/ccltO3Z2.s 			page 2


  18:src/../h/MemoryAllocator.h ****     void tryToMerge(FreeSeg*);
  19:src/../h/MemoryAllocator.h ****     static size_t  bytesToBlocks(size_t s);
  20:src/../h/MemoryAllocator.h ****     MemAlloc()=default;
  21:src/../h/MemoryAllocator.h **** public:
  22:src/../h/MemoryAllocator.h ****     void* mem_alloc(size_t);
  23:src/../h/MemoryAllocator.h ****     int mem_free(void*);
  24:src/../h/MemoryAllocator.h ****     static MemAlloc& getAllocator(){
  25:src/../h/MemoryAllocator.h ****         static MemAlloc instance;
  32              		.loc 2 25 9
  26:src/../h/MemoryAllocator.h ****         if(!instance.flag){
  33              		.loc 2 26 9
  34              		.loc 2 26 22 is_stmt 0
  35 001c 97070000 		lbu	a5,_ZZN8MemAlloc12getAllocatorEvE8instance+8
  35      83C70700 
  36              		.loc 2 26 9
  37 0024 638A0704 		beqz	a5,.L6
  38              	.LVL1:
  39              	.L2:
  27:src/../h/MemoryAllocator.h ****             instance.flag=true;
  28:src/../h/MemoryAllocator.h ****             instance.headFree=(FreeSeg*)HEAP_START_ADDR;
  29:src/../h/MemoryAllocator.h ****             instance.headFree->next= nullptr;
  30:src/../h/MemoryAllocator.h ****             instance.headFree->prev= nullptr;
  31:src/../h/MemoryAllocator.h ****             instance.headFree->szBy=(uint64)((uint64*)HEAP_END_ADDR-(uint64*)HEAP_START_ADDR);
  32:src/../h/MemoryAllocator.h ****             instance.headFree->szBl=bytesToBlocks(instance.headFree->szBy-sizeof(FreeSeg));
  33:src/../h/MemoryAllocator.h ****         }
  34:src/../h/MemoryAllocator.h ****         return instance;
  40              		.loc 2 34 9 is_stmt 1
  41              	.LBE7:
  42              	.LBE6:
  43              		.loc 1 10 57 is_stmt 0
  44 0028 93051000 		li	a1,1
  45 002c 17050000 		lla	a0,_ZZN8MemAlloc12getAllocatorEvE8instance
  45      13050500 
  46 0034 97000000 		call	_ZN8MemAlloc9mem_allocEm@plt
  46      E7800000 
  47              	.LVL2:
  11:src/Scheduler.cpp ****     novi->thread=t;
  48              		.loc 1 11 5 is_stmt 1
  49              		.loc 1 11 17 is_stmt 0
  50 003c 23309500 		sd	s1,0(a0)
  12:src/Scheduler.cpp ****     novi->next=nullptr;
  51              		.loc 1 12 5 is_stmt 1
  52              		.loc 1 12 15 is_stmt 0
  53 0040 23340500 		sd	zero,8(a0)
  13:src/Scheduler.cpp ****     if(!head){
  54              		.loc 1 13 5 is_stmt 1
  55              	.LBB9:
  56              		.loc 1 13 8 is_stmt 0
  57 0044 97070000 		ld	a5,.LANCHOR0
  57      83B70700 
  58              		.loc 1 13 5
  59 004c 63840708 		beqz	a5,.L7
  60              	.L3:
  61              	.LVL3:
  62              	.LBB10:
  14:src/Scheduler.cpp ****         head=novi;
  15:src/Scheduler.cpp ****     }else{
GAS LISTING /tmp/ccltO3Z2.s 			page 3


  16:src/Scheduler.cpp ****         Elem* tek;
  17:src/Scheduler.cpp ****         for(tek=head;tek->next;tek=tek->next);
  63              		.loc 1 17 27 is_stmt 1 discriminator 3
  64 0050 13870700 		mv	a4,a5
  65 0054 83B78700 		ld	a5,8(a5)
  66              	.LVL4:
  67 0058 E39C07FE 		bnez	a5,.L3
  18:src/Scheduler.cpp ****         tek->next=novi;
  68              		.loc 1 18 9
  69              		.loc 1 18 18 is_stmt 0
  70 005c 2334A700 		sd	a0,8(a4)
  71              	.LVL5:
  72              	.L1:
  73              	.LBE10:
  74              	.LBE9:
  19:src/Scheduler.cpp ****     }
  20:src/Scheduler.cpp **** }
  75              		.loc 1 20 1
  76 0060 83308101 		ld	ra,24(sp)
  77              		.cfi_remember_state
  78              		.cfi_restore 1
  79 0064 03340101 		ld	s0,16(sp)
  80              		.cfi_restore 8
  81              		.cfi_def_cfa 2, 32
  82 0068 83348100 		ld	s1,8(sp)
  83              		.cfi_restore 9
  84              	.LVL6:
  85 006c 03390100 		ld	s2,0(sp)
  86              		.cfi_restore 18
  87 0070 13010102 		addi	sp,sp,32
  88              		.cfi_def_cfa_offset 0
  89 0074 67800000 		jr	ra
  90              	.LVL7:
  91              	.L6:
  92              		.cfi_restore_state
  93              	.LBB11:
  94              	.LBB8:
  27:src/../h/MemoryAllocator.h ****             instance.headFree=(FreeSeg*)HEAP_START_ADDR;
  95              		.loc 2 27 13 is_stmt 1
  27:src/../h/MemoryAllocator.h ****             instance.headFree=(FreeSeg*)HEAP_START_ADDR;
  96              		.loc 2 27 26 is_stmt 0
  97 0078 97070000 		lla	a5,_ZZN8MemAlloc12getAllocatorEvE8instance
  97      93870700 
  98 0080 13071000 		li	a4,1
  99 0084 2384E700 		sb	a4,8(a5)
  28:src/../h/MemoryAllocator.h ****             instance.headFree->next= nullptr;
 100              		.loc 2 28 13 is_stmt 1
  28:src/../h/MemoryAllocator.h ****             instance.headFree->next= nullptr;
 101              		.loc 2 28 30 is_stmt 0
 102 0088 97060000 		la	a3,HEAP_START_ADDR
 102      83B60600 
 103 0090 03B70600 		ld	a4,0(a3)
 104 0094 23B0E700 		sd	a4,0(a5)
  29:src/../h/MemoryAllocator.h ****             instance.headFree->prev= nullptr;
 105              		.loc 2 29 13 is_stmt 1
  29:src/../h/MemoryAllocator.h ****             instance.headFree->prev= nullptr;
 106              		.loc 2 29 36 is_stmt 0
GAS LISTING /tmp/ccltO3Z2.s 			page 4


 107 0098 23340700 		sd	zero,8(a4)
  30:src/../h/MemoryAllocator.h ****             instance.headFree->szBy=(uint64)((uint64*)HEAP_END_ADDR-(uint64*)HEAP_START_ADDR);
 108              		.loc 2 30 13 is_stmt 1
  30:src/../h/MemoryAllocator.h ****             instance.headFree->szBy=(uint64)((uint64*)HEAP_END_ADDR-(uint64*)HEAP_START_ADDR);
 109              		.loc 2 30 36 is_stmt 0
 110 009c 23300700 		sd	zero,0(a4)
  31:src/../h/MemoryAllocator.h ****             instance.headFree->szBl=bytesToBlocks(instance.headFree->szBy-sizeof(FreeSeg));
 111              		.loc 2 31 13 is_stmt 1
  31:src/../h/MemoryAllocator.h ****             instance.headFree->szBl=bytesToBlocks(instance.headFree->szBy-sizeof(FreeSeg));
 112              		.loc 2 31 46 is_stmt 0
 113 00a0 17070000 		la	a4,HEAP_END_ADDR
 113      03370700 
 114 00a8 03350700 		ld	a0,0(a4)
  31:src/../h/MemoryAllocator.h ****             instance.headFree->szBl=bytesToBlocks(instance.headFree->szBy-sizeof(FreeSeg));
 115              		.loc 2 31 69
 116 00ac 03B70600 		ld	a4,0(a3)
  31:src/../h/MemoryAllocator.h ****             instance.headFree->szBl=bytesToBlocks(instance.headFree->szBy-sizeof(FreeSeg));
 117              		.loc 2 31 68
 118 00b0 3305E540 		sub	a0,a0,a4
 119 00b4 13553540 		srai	a0,a0,3
  31:src/../h/MemoryAllocator.h ****             instance.headFree->szBl=bytesToBlocks(instance.headFree->szBy-sizeof(FreeSeg));
 120              		.loc 2 31 22
 121 00b8 03B90700 		ld	s2,0(a5)
  31:src/../h/MemoryAllocator.h ****             instance.headFree->szBl=bytesToBlocks(instance.headFree->szBy-sizeof(FreeSeg));
 122              		.loc 2 31 36
 123 00bc 233CA900 		sd	a0,24(s2)
  32:src/../h/MemoryAllocator.h ****         }
 124              		.loc 2 32 13 is_stmt 1
  32:src/../h/MemoryAllocator.h ****         }
 125              		.loc 2 32 50 is_stmt 0
 126 00c0 130505FE 		addi	a0,a0,-32
 127 00c4 97000000 		call	_ZN8MemAlloc13bytesToBlocksEm@plt
 127      E7800000 
 128              	.LVL8:
  32:src/../h/MemoryAllocator.h ****         }
 129              		.loc 2 32 36
 130 00cc 2338A900 		sd	a0,16(s2)
 131 00d0 6FF09FF5 		j	.L2
 132              	.LVL9:
 133              	.L7:
 134              	.LBE8:
 135              	.LBE11:
 136              	.LBB12:
  14:src/Scheduler.cpp ****     }else{
 137              		.loc 1 14 9 is_stmt 1
  14:src/Scheduler.cpp ****     }else{
 138              		.loc 1 14 13 is_stmt 0
 139 00d4 97070000 		sd	a0,.LANCHOR0,a5
 139      23B0A700 
 140 00dc 6FF05FF8 		j	.L1
 141              	.LBE12:
 142              		.cfi_endproc
 143              	.LFE19:
 145              		.align	2
 146              		.globl	_ZN9Scheduler3getEv
 148              	_ZN9Scheduler3getEv:
 149              	.LFB20:
GAS LISTING /tmp/ccltO3Z2.s 			page 5


  21:src/Scheduler.cpp **** 
  22:src/Scheduler.cpp **** TCB *Scheduler::get() {
 150              		.loc 1 22 23 is_stmt 1
 151              		.cfi_startproc
 152 00e0 130101FD 		addi	sp,sp,-48
 153              		.cfi_def_cfa_offset 48
 154 00e4 23341102 		sd	ra,40(sp)
 155 00e8 23308102 		sd	s0,32(sp)
 156 00ec 233C9100 		sd	s1,24(sp)
 157 00f0 23382101 		sd	s2,16(sp)
 158 00f4 23343101 		sd	s3,8(sp)
 159              		.cfi_offset 1, -8
 160              		.cfi_offset 8, -16
 161              		.cfi_offset 9, -24
 162              		.cfi_offset 18, -32
 163              		.cfi_offset 19, -40
 164 00f8 13040103 		addi	s0,sp,48
 165              		.cfi_def_cfa 8, 0
  23:src/Scheduler.cpp ****     TCB* ret=nullptr;
 166              		.loc 1 23 5
 167              	.LVL10:
  24:src/Scheduler.cpp ****     if(head){
 168              		.loc 1 24 5
 169              	.LBB17:
 170              		.loc 1 24 12 is_stmt 0
 171 00fc 97040000 		ld	s1,.LANCHOR0
 171      83B40400 
 172              		.loc 1 24 5
 173 0104 6388040A 		beqz	s1,.L11
 174              	.LBB18:
  25:src/Scheduler.cpp ****         ret=head->thread;
 175              		.loc 1 25 9 is_stmt 1
 176              		.loc 1 25 12 is_stmt 0
 177 0108 03B90400 		ld	s2,0(s1)
 178              	.LVL11:
  26:src/Scheduler.cpp ****         Elem* stari=head;
 179              		.loc 1 26 9 is_stmt 1
  27:src/Scheduler.cpp ****         head=head->next;
 180              		.loc 1 27 9
 181              		.loc 1 27 20 is_stmt 0
 182 010c 83B78400 		ld	a5,8(s1)
 183              		.loc 1 27 13
 184 0110 17070000 		sd	a5,.LANCHOR0,a4
 184      2330F700 
  28:src/Scheduler.cpp ****         MemAlloc::getAllocator().mem_free(stari);
 185              		.loc 1 28 9 is_stmt 1
 186              	.LBB19:
 187              	.LBB20:
  25:src/../h/MemoryAllocator.h ****         if(!instance.flag){
 188              		.loc 2 25 9
  26:src/../h/MemoryAllocator.h ****             instance.flag=true;
 189              		.loc 2 26 9
  26:src/../h/MemoryAllocator.h ****             instance.flag=true;
 190              		.loc 2 26 22 is_stmt 0
 191 0118 97070000 		lbu	a5,_ZZN8MemAlloc12getAllocatorEvE8instance+8
 191      83C70700 
  26:src/../h/MemoryAllocator.h ****             instance.flag=true;
GAS LISTING /tmp/ccltO3Z2.s 			page 6


 192              		.loc 2 26 9
 193 0120 638C0702 		beqz	a5,.L13
 194              	.L10:
 195              		.loc 2 34 9 is_stmt 1
 196              	.LBE20:
 197              	.LBE19:
 198              		.loc 1 28 42 is_stmt 0
 199 0124 93850400 		mv	a1,s1
 200 0128 17050000 		lla	a0,_ZZN8MemAlloc12getAllocatorEvE8instance
 200      13050500 
 201 0130 97000000 		call	_ZN8MemAlloc8mem_freeEPv@plt
 201      E7800000 
 202              	.LVL12:
 203              	.L8:
 204              	.LBE18:
 205              	.LBE17:
  29:src/Scheduler.cpp ****     }
  30:src/Scheduler.cpp ****     return ret;
  31:src/Scheduler.cpp **** }
 206              		.loc 1 31 1
 207 0138 13050900 		mv	a0,s2
 208 013c 83308102 		ld	ra,40(sp)
 209              		.cfi_remember_state
 210              		.cfi_restore 1
 211 0140 03340102 		ld	s0,32(sp)
 212              		.cfi_restore 8
 213              		.cfi_def_cfa 2, 48
 214 0144 83348101 		ld	s1,24(sp)
 215              		.cfi_restore 9
 216 0148 03390101 		ld	s2,16(sp)
 217              		.cfi_restore 18
 218 014c 83398100 		ld	s3,8(sp)
 219              		.cfi_restore 19
 220 0150 13010103 		addi	sp,sp,48
 221              		.cfi_def_cfa_offset 0
 222 0154 67800000 		jr	ra
 223              	.LVL13:
 224              	.L13:
 225              		.cfi_restore_state
 226              	.LBB24:
 227              	.LBB23:
 228              	.LBB22:
 229              	.LBB21:
  27:src/../h/MemoryAllocator.h ****             instance.headFree=(FreeSeg*)HEAP_START_ADDR;
 230              		.loc 2 27 13 is_stmt 1
  27:src/../h/MemoryAllocator.h ****             instance.headFree=(FreeSeg*)HEAP_START_ADDR;
 231              		.loc 2 27 26 is_stmt 0
 232 0158 97070000 		lla	a5,_ZZN8MemAlloc12getAllocatorEvE8instance
 232      93870700 
 233 0160 13071000 		li	a4,1
 234 0164 2384E700 		sb	a4,8(a5)
  28:src/../h/MemoryAllocator.h ****             instance.headFree->next= nullptr;
 235              		.loc 2 28 13 is_stmt 1
  28:src/../h/MemoryAllocator.h ****             instance.headFree->next= nullptr;
 236              		.loc 2 28 30 is_stmt 0
 237 0168 97060000 		la	a3,HEAP_START_ADDR
 237      83B60600 
GAS LISTING /tmp/ccltO3Z2.s 			page 7


 238 0170 03B70600 		ld	a4,0(a3)
 239 0174 23B0E700 		sd	a4,0(a5)
  29:src/../h/MemoryAllocator.h ****             instance.headFree->prev= nullptr;
 240              		.loc 2 29 13 is_stmt 1
  29:src/../h/MemoryAllocator.h ****             instance.headFree->prev= nullptr;
 241              		.loc 2 29 36 is_stmt 0
 242 0178 23340700 		sd	zero,8(a4)
  30:src/../h/MemoryAllocator.h ****             instance.headFree->szBy=(uint64)((uint64*)HEAP_END_ADDR-(uint64*)HEAP_START_ADDR);
 243              		.loc 2 30 13 is_stmt 1
  30:src/../h/MemoryAllocator.h ****             instance.headFree->szBy=(uint64)((uint64*)HEAP_END_ADDR-(uint64*)HEAP_START_ADDR);
 244              		.loc 2 30 36 is_stmt 0
 245 017c 23300700 		sd	zero,0(a4)
  31:src/../h/MemoryAllocator.h ****             instance.headFree->szBl=bytesToBlocks(instance.headFree->szBy-sizeof(FreeSeg));
 246              		.loc 2 31 13 is_stmt 1
  31:src/../h/MemoryAllocator.h ****             instance.headFree->szBl=bytesToBlocks(instance.headFree->szBy-sizeof(FreeSeg));
 247              		.loc 2 31 46 is_stmt 0
 248 0180 17070000 		la	a4,HEAP_END_ADDR
 248      03370700 
 249 0188 03350700 		ld	a0,0(a4)
  31:src/../h/MemoryAllocator.h ****             instance.headFree->szBl=bytesToBlocks(instance.headFree->szBy-sizeof(FreeSeg));
 250              		.loc 2 31 69
 251 018c 03B70600 		ld	a4,0(a3)
  31:src/../h/MemoryAllocator.h ****             instance.headFree->szBl=bytesToBlocks(instance.headFree->szBy-sizeof(FreeSeg));
 252              		.loc 2 31 68
 253 0190 3305E540 		sub	a0,a0,a4
 254 0194 13553540 		srai	a0,a0,3
  31:src/../h/MemoryAllocator.h ****             instance.headFree->szBl=bytesToBlocks(instance.headFree->szBy-sizeof(FreeSeg));
 255              		.loc 2 31 22
 256 0198 83B90700 		ld	s3,0(a5)
  31:src/../h/MemoryAllocator.h ****             instance.headFree->szBl=bytesToBlocks(instance.headFree->szBy-sizeof(FreeSeg));
 257              		.loc 2 31 36
 258 019c 23BCA900 		sd	a0,24(s3)
  32:src/../h/MemoryAllocator.h ****         }
 259              		.loc 2 32 13 is_stmt 1
  32:src/../h/MemoryAllocator.h ****         }
 260              		.loc 2 32 50 is_stmt 0
 261 01a0 130505FE 		addi	a0,a0,-32
 262 01a4 97000000 		call	_ZN8MemAlloc13bytesToBlocksEm@plt
 262      E7800000 
 263              	.LVL14:
  32:src/../h/MemoryAllocator.h ****         }
 264              		.loc 2 32 36
 265 01ac 23B8A900 		sd	a0,16(s3)
 266 01b0 6FF05FF7 		j	.L10
 267              	.LVL15:
 268              	.L11:
 269              	.LBE21:
 270              	.LBE22:
 271              	.LBE23:
 272              	.LBE24:
  23:src/Scheduler.cpp ****     if(head){
 273              		.loc 1 23 10
 274 01b4 13890400 		mv	s2,s1
 275              	.LVL16:
  30:src/Scheduler.cpp **** }
 276              		.loc 1 30 5 is_stmt 1
  30:src/Scheduler.cpp **** }
GAS LISTING /tmp/ccltO3Z2.s 			page 8


 277              		.loc 1 30 12 is_stmt 0
 278 01b8 6FF01FF8 		j	.L8
 279              		.cfi_endproc
 280              	.LFE20:
 282              		.align	2
 283              		.globl	_ZN9SchedulerD2Ev
 285              	_ZN9SchedulerD2Ev:
 286              	.LFB22:
  32:src/Scheduler.cpp **** 
  33:src/Scheduler.cpp **** Scheduler::~Scheduler() {
 287              		.loc 1 33 1 is_stmt 1
 288              		.cfi_startproc
 289              	.LVL17:
 290 01bc 130101FE 		addi	sp,sp,-32
 291              		.cfi_def_cfa_offset 32
 292 01c0 233C1100 		sd	ra,24(sp)
 293 01c4 23388100 		sd	s0,16(sp)
 294 01c8 23349100 		sd	s1,8(sp)
 295              		.cfi_offset 1, -8
 296              		.cfi_offset 8, -16
 297              		.cfi_offset 9, -24
 298 01cc 13040102 		addi	s0,sp,32
 299              		.cfi_def_cfa 8, 0
 300 01d0 6F000001 		j	.L17
 301              	.LVL18:
 302              	.L21:
 303              	.LBB25:
 304              	.LBB26:
  34:src/Scheduler.cpp ****     while (head) {
  35:src/Scheduler.cpp ****         Elem *stari = head;
  36:src/Scheduler.cpp ****         head = head->next;
  37:src/Scheduler.cpp ****         delete stari->thread;
 305              		.loc 1 37 23 is_stmt 0 discriminator 1
 306 01d4 97000000 		call	_ZdlPv@plt
 306      E7800000 
 307              	.LVL19:
 308              	.L16:
  38:src/Scheduler.cpp ****         delete stari;
 309              		.loc 1 38 9 is_stmt 1
 310              		.loc 1 38 21 is_stmt 0
 311 01dc 63940402 		bnez	s1,.L20
 312              	.LVL20:
 313              	.L17:
 314              	.LBE26:
  34:src/Scheduler.cpp ****     while (head) {
 315              		.loc 1 34 5 is_stmt 1
  34:src/Scheduler.cpp ****     while (head) {
 316              		.loc 1 34 12
 317 01e0 97040000 		ld	s1,.LANCHOR0
 317      83B40400 
 318 01e8 63860402 		beqz	s1,.L14
 319              	.LBB27:
  35:src/Scheduler.cpp ****         head = head->next;
 320              		.loc 1 35 9
 321              	.LVL21:
  36:src/Scheduler.cpp ****         delete stari->thread;
 322              		.loc 1 36 9
GAS LISTING /tmp/ccltO3Z2.s 			page 9


  36:src/Scheduler.cpp ****         delete stari->thread;
 323              		.loc 1 36 22 is_stmt 0
 324 01ec 83B78400 		ld	a5,8(s1)
  36:src/Scheduler.cpp ****         delete stari->thread;
 325              		.loc 1 36 14
 326 01f0 17070000 		sd	a5,.LANCHOR0,a4
 326      2330F700 
  37:src/Scheduler.cpp ****         delete stari;
 327              		.loc 1 37 9 is_stmt 1
  37:src/Scheduler.cpp ****         delete stari;
 328              		.loc 1 37 23 is_stmt 0
 329 01f8 03B50400 		ld	a0,0(s1)
  37:src/Scheduler.cpp ****         delete stari;
 330              		.loc 1 37 29
 331 01fc E31C05FC 		bnez	a0,.L21
 332 0200 6FF0DFFD 		j	.L16
 333              	.L20:
 334              		.loc 1 38 16 discriminator 1
 335 0204 13850400 		mv	a0,s1
 336 0208 97000000 		call	_ZdlPv@plt
 336      E7800000 
 337              	.LVL22:
 338 0210 6FF01FFD 		j	.L17
 339              	.LVL23:
 340              	.L14:
 341              	.LBE27:
 342              	.LBE25:
  39:src/Scheduler.cpp ****     }
  40:src/Scheduler.cpp **** }...
 343              		.loc 1 40 1
 344 0214 83308101 		ld	ra,24(sp)
 345              		.cfi_restore 1
 346 0218 03340101 		ld	s0,16(sp)
 347              		.cfi_restore 8
 348              		.cfi_def_cfa 2, 32
 349 021c 83348100 		ld	s1,8(sp)
 350              		.cfi_restore 9
 351 0220 13010102 		addi	sp,sp,32
 352              		.cfi_def_cfa_offset 0
 353 0224 67800000 		jr	ra
 354              		.cfi_endproc
 355              	.LFE22:
 357              		.globl	_ZN9SchedulerD1Ev
 358              		.set	_ZN9SchedulerD1Ev,_ZN9SchedulerD2Ev
 359              		.globl	_ZN9Scheduler4headE
 360              		.weak	_ZZN8MemAlloc12getAllocatorEvE8instance
 361              		.section	.bss._ZZN8MemAlloc12getAllocatorEvE8instance,"awG",@nobits,_ZZN8MemAlloc12getAllocatorEvE
 362              		.align	3
 365              	_ZZN8MemAlloc12getAllocatorEvE8instance:
 366 0000 00000000 		.zero	16
 366      00000000 
 366      00000000 
 366      00000000 
 367              		.bss
 368              		.align	3
 369              		.set	.LANCHOR0,. + 0
 372              	_ZN9Scheduler4headE:
GAS LISTING /tmp/ccltO3Z2.s 			page 10


 373 0000 00000000 		.zero	8
 373      00000000 
 374              		.text
 375              	.Letext0:
 376              		.file 3 "src/../h/../lib/hw.h"
 377              		.file 4 "src/../h/TCB.h"
 378              		.file 5 "src/../h/Con.h"
 379              		.file 6 "src/../h/Scheduler.h"
GAS LISTING /tmp/ccltO3Z2.s 			page 11


DEFINED SYMBOLS
                            *ABS*:0000000000000000 Scheduler.cpp
     /tmp/ccltO3Z2.s:9      .text:0000000000000000 _ZN9Scheduler3putEP3TCB
     /tmp/ccltO3Z2.s:13     .text:0000000000000000 .L0 
     /tmp/ccltO3Z2.s:15     .text:0000000000000000 .L0 
     /tmp/ccltO3Z2.s:16     .text:0000000000000004 .L0 
     /tmp/ccltO3Z2.s:21     .text:0000000000000014 .L0 
     /tmp/ccltO3Z2.s:22     .text:0000000000000014 .L0 
     /tmp/ccltO3Z2.s:23     .text:0000000000000014 .L0 
     /tmp/ccltO3Z2.s:24     .text:0000000000000014 .L0 
     /tmp/ccltO3Z2.s:26     .text:0000000000000018 .L0 
     /tmp/ccltO3Z2.s:32     .text:000000000000001c .L0 
     /tmp/ccltO3Z2.s:33     .text:000000000000001c .L0 
     /tmp/ccltO3Z2.s:34     .text:000000000000001c .L0 
     /tmp/ccltO3Z2.s:365    .bss._ZZN8MemAlloc12getAllocatorEvE8instance:0000000000000000 _ZZN8MemAlloc12getAllocatorEvE8instance
     /tmp/ccltO3Z2.s:35     .text:000000000000001c .L0 
     /tmp/ccltO3Z2.s:37     .text:0000000000000024 .L0 
     /tmp/ccltO3Z2.s:43     .text:0000000000000028 .L0 
     /tmp/ccltO3Z2.s:44     .text:0000000000000028 .L0 
     /tmp/ccltO3Z2.s:49     .text:000000000000003c .L0 
     /tmp/ccltO3Z2.s:50     .text:000000000000003c .L0 
     /tmp/ccltO3Z2.s:52     .text:0000000000000040 .L0 
     /tmp/ccltO3Z2.s:53     .text:0000000000000040 .L0 
     /tmp/ccltO3Z2.s:56     .text:0000000000000044 .L0 
     /tmp/ccltO3Z2.s:57     .text:0000000000000044 .L0 
     /tmp/ccltO3Z2.s:59     .text:000000000000004c .L0 
     /tmp/ccltO3Z2.s:64     .text:0000000000000050 .L0 
     /tmp/ccltO3Z2.s:69     .text:000000000000005c .L0 
     /tmp/ccltO3Z2.s:70     .text:000000000000005c .L0 
     /tmp/ccltO3Z2.s:76     .text:0000000000000060 .L0 
     /tmp/ccltO3Z2.s:77     .text:0000000000000064 .L0 
     /tmp/ccltO3Z2.s:78     .text:0000000000000064 .L0 
     /tmp/ccltO3Z2.s:80     .text:0000000000000068 .L0 
     /tmp/ccltO3Z2.s:81     .text:0000000000000068 .L0 
     /tmp/ccltO3Z2.s:83     .text:000000000000006c .L0 
     /tmp/ccltO3Z2.s:86     .text:0000000000000070 .L0 
     /tmp/ccltO3Z2.s:88     .text:0000000000000074 .L0 
     /tmp/ccltO3Z2.s:92     .text:0000000000000078 .L0 
     /tmp/ccltO3Z2.s:96     .text:0000000000000078 .L0 
     /tmp/ccltO3Z2.s:97     .text:0000000000000078 .L0 
     /tmp/ccltO3Z2.s:101    .text:0000000000000088 .L0 
     /tmp/ccltO3Z2.s:102    .text:0000000000000088 .L0 
     /tmp/ccltO3Z2.s:106    .text:0000000000000098 .L0 
     /tmp/ccltO3Z2.s:107    .text:0000000000000098 .L0 
     /tmp/ccltO3Z2.s:109    .text:000000000000009c .L0 
     /tmp/ccltO3Z2.s:110    .text:000000000000009c .L0 
     /tmp/ccltO3Z2.s:112    .text:00000000000000a0 .L0 
     /tmp/ccltO3Z2.s:113    .text:00000000000000a0 .L0 
     /tmp/ccltO3Z2.s:116    .text:00000000000000ac .L0 
     /tmp/ccltO3Z2.s:118    .text:00000000000000b0 .L0 
     /tmp/ccltO3Z2.s:121    .text:00000000000000b8 .L0 
     /tmp/ccltO3Z2.s:123    .text:00000000000000bc .L0 
     /tmp/ccltO3Z2.s:125    .text:00000000000000c0 .L0 
     /tmp/ccltO3Z2.s:126    .text:00000000000000c0 .L0 
     /tmp/ccltO3Z2.s:130    .text:00000000000000cc .L0 
     /tmp/ccltO3Z2.s:138    .text:00000000000000d4 .L0 
     /tmp/ccltO3Z2.s:139    .text:00000000000000d4 .L0 
GAS LISTING /tmp/ccltO3Z2.s 			page 12


     /tmp/ccltO3Z2.s:142    .text:00000000000000e0 .L0 
     /tmp/ccltO3Z2.s:148    .text:00000000000000e0 _ZN9Scheduler3getEv
     /tmp/ccltO3Z2.s:151    .text:00000000000000e0 .L0 
     /tmp/ccltO3Z2.s:152    .text:00000000000000e0 .L0 
     /tmp/ccltO3Z2.s:153    .text:00000000000000e4 .L0 
     /tmp/ccltO3Z2.s:159    .text:00000000000000f8 .L0 
     /tmp/ccltO3Z2.s:160    .text:00000000000000f8 .L0 
     /tmp/ccltO3Z2.s:161    .text:00000000000000f8 .L0 
     /tmp/ccltO3Z2.s:162    .text:00000000000000f8 .L0 
     /tmp/ccltO3Z2.s:163    .text:00000000000000f8 .L0 
     /tmp/ccltO3Z2.s:165    .text:00000000000000fc .L0 
     /tmp/ccltO3Z2.s:168    .text:00000000000000fc .L0 
     /tmp/ccltO3Z2.s:170    .text:00000000000000fc .L0 
     /tmp/ccltO3Z2.s:171    .text:00000000000000fc .L0 
     /tmp/ccltO3Z2.s:173    .text:0000000000000104 .L0 
     /tmp/ccltO3Z2.s:176    .text:0000000000000108 .L0 
     /tmp/ccltO3Z2.s:177    .text:0000000000000108 .L0 
     /tmp/ccltO3Z2.s:180    .text:000000000000010c .L0 
     /tmp/ccltO3Z2.s:181    .text:000000000000010c .L0 
     /tmp/ccltO3Z2.s:182    .text:000000000000010c .L0 
     /tmp/ccltO3Z2.s:184    .text:0000000000000110 .L0 
     /tmp/ccltO3Z2.s:188    .text:0000000000000118 .L0 
     /tmp/ccltO3Z2.s:189    .text:0000000000000118 .L0 
     /tmp/ccltO3Z2.s:190    .text:0000000000000118 .L0 
     /tmp/ccltO3Z2.s:191    .text:0000000000000118 .L0 
     /tmp/ccltO3Z2.s:193    .text:0000000000000120 .L0 
     /tmp/ccltO3Z2.s:198    .text:0000000000000124 .L0 
     /tmp/ccltO3Z2.s:199    .text:0000000000000124 .L0 
     /tmp/ccltO3Z2.s:207    .text:0000000000000138 .L0 
     /tmp/ccltO3Z2.s:209    .text:0000000000000140 .L0 
     /tmp/ccltO3Z2.s:210    .text:0000000000000140 .L0 
     /tmp/ccltO3Z2.s:212    .text:0000000000000144 .L0 
     /tmp/ccltO3Z2.s:213    .text:0000000000000144 .L0 
     /tmp/ccltO3Z2.s:215    .text:0000000000000148 .L0 
     /tmp/ccltO3Z2.s:217    .text:000000000000014c .L0 
     /tmp/ccltO3Z2.s:219    .text:0000000000000150 .L0 
     /tmp/ccltO3Z2.s:221    .text:0000000000000154 .L0 
     /tmp/ccltO3Z2.s:225    .text:0000000000000158 .L0 
     /tmp/ccltO3Z2.s:231    .text:0000000000000158 .L0 
     /tmp/ccltO3Z2.s:232    .text:0000000000000158 .L0 
     /tmp/ccltO3Z2.s:236    .text:0000000000000168 .L0 
     /tmp/ccltO3Z2.s:237    .text:0000000000000168 .L0 
     /tmp/ccltO3Z2.s:241    .text:0000000000000178 .L0 
     /tmp/ccltO3Z2.s:242    .text:0000000000000178 .L0 
     /tmp/ccltO3Z2.s:244    .text:000000000000017c .L0 
     /tmp/ccltO3Z2.s:245    .text:000000000000017c .L0 
     /tmp/ccltO3Z2.s:247    .text:0000000000000180 .L0 
     /tmp/ccltO3Z2.s:248    .text:0000000000000180 .L0 
     /tmp/ccltO3Z2.s:251    .text:000000000000018c .L0 
     /tmp/ccltO3Z2.s:253    .text:0000000000000190 .L0 
     /tmp/ccltO3Z2.s:256    .text:0000000000000198 .L0 
     /tmp/ccltO3Z2.s:258    .text:000000000000019c .L0 
     /tmp/ccltO3Z2.s:260    .text:00000000000001a0 .L0 
     /tmp/ccltO3Z2.s:261    .text:00000000000001a0 .L0 
     /tmp/ccltO3Z2.s:265    .text:00000000000001ac .L0 
     /tmp/ccltO3Z2.s:274    .text:00000000000001b4 .L0 
     /tmp/ccltO3Z2.s:277    .text:00000000000001b8 .L0 
GAS LISTING /tmp/ccltO3Z2.s 			page 13


     /tmp/ccltO3Z2.s:278    .text:00000000000001b8 .L0 
     /tmp/ccltO3Z2.s:279    .text:00000000000001bc .L0 
     /tmp/ccltO3Z2.s:285    .text:00000000000001bc _ZN9SchedulerD2Ev
     /tmp/ccltO3Z2.s:288    .text:00000000000001bc .L0 
     /tmp/ccltO3Z2.s:290    .text:00000000000001bc .L0 
     /tmp/ccltO3Z2.s:291    .text:00000000000001c0 .L0 
     /tmp/ccltO3Z2.s:295    .text:00000000000001cc .L0 
     /tmp/ccltO3Z2.s:296    .text:00000000000001cc .L0 
     /tmp/ccltO3Z2.s:297    .text:00000000000001cc .L0 
     /tmp/ccltO3Z2.s:299    .text:00000000000001d0 .L0 
     /tmp/ccltO3Z2.s:306    .text:00000000000001d4 .L0 
     /tmp/ccltO3Z2.s:310    .text:00000000000001dc .L0 
     /tmp/ccltO3Z2.s:311    .text:00000000000001dc .L0 
     /tmp/ccltO3Z2.s:316    .text:00000000000001e0 .L0 
     /tmp/ccltO3Z2.s:317    .text:00000000000001e0 .L0 
     /tmp/ccltO3Z2.s:322    .text:00000000000001ec .L0 
     /tmp/ccltO3Z2.s:323    .text:00000000000001ec .L0 
     /tmp/ccltO3Z2.s:324    .text:00000000000001ec .L0 
     /tmp/ccltO3Z2.s:326    .text:00000000000001f0 .L0 
     /tmp/ccltO3Z2.s:328    .text:00000000000001f8 .L0 
     /tmp/ccltO3Z2.s:329    .text:00000000000001f8 .L0 
     /tmp/ccltO3Z2.s:331    .text:00000000000001fc .L0 
     /tmp/ccltO3Z2.s:335    .text:0000000000000204 .L0 
     /tmp/ccltO3Z2.s:344    .text:0000000000000214 .L0 
     /tmp/ccltO3Z2.s:345    .text:0000000000000218 .L0 
     /tmp/ccltO3Z2.s:347    .text:000000000000021c .L0 
     /tmp/ccltO3Z2.s:348    .text:000000000000021c .L0 
     /tmp/ccltO3Z2.s:350    .text:0000000000000220 .L0 
     /tmp/ccltO3Z2.s:352    .text:0000000000000224 .L0 
     /tmp/ccltO3Z2.s:354    .text:0000000000000228 .L0 
     /tmp/ccltO3Z2.s:285    .text:00000000000001bc _ZN9SchedulerD1Ev
     /tmp/ccltO3Z2.s:372    .bss:0000000000000000 _ZN9Scheduler4headE
     /tmp/ccltO3Z2.s:369    .bss:0000000000000000 .LANCHOR0
     /tmp/ccltO3Z2.s:380    .text:0000000000000228 .L0 
     /tmp/ccltO3Z2.s:35     .text:000000000000001c .L0 
     /tmp/ccltO3Z2.s:45     .text:000000000000002c .L0 
     /tmp/ccltO3Z2.s:57     .text:0000000000000044 .L0 
     /tmp/ccltO3Z2.s:97     .text:0000000000000078 .L0 
     /tmp/ccltO3Z2.s:102    .text:0000000000000088 .L0 
     /tmp/ccltO3Z2.s:113    .text:00000000000000a0 .L0 
     /tmp/ccltO3Z2.s:139    .text:00000000000000d4 .L0 
     /tmp/ccltO3Z2.s:171    .text:00000000000000fc .L0 
     /tmp/ccltO3Z2.s:184    .text:0000000000000110 .L0 
     /tmp/ccltO3Z2.s:191    .text:0000000000000118 .L0 
     /tmp/ccltO3Z2.s:200    .text:0000000000000128 .L0 
     /tmp/ccltO3Z2.s:232    .text:0000000000000158 .L0 
     /tmp/ccltO3Z2.s:237    .text:0000000000000168 .L0 
     /tmp/ccltO3Z2.s:248    .text:0000000000000180 .L0 
     /tmp/ccltO3Z2.s:317    .text:00000000000001e0 .L0 
     /tmp/ccltO3Z2.s:326    .text:00000000000001f0 .L0 
     /tmp/ccltO3Z2.s:91     .text:0000000000000078 .L6
     /tmp/ccltO3Z2.s:133    .text:00000000000000d4 .L7
     /tmp/ccltO3Z2.s:60     .text:0000000000000050 .L3
     /tmp/ccltO3Z2.s:39     .text:0000000000000028 .L2
     /tmp/ccltO3Z2.s:72     .text:0000000000000060 .L1
     /tmp/ccltO3Z2.s:268    .text:00000000000001b4 .L11
     /tmp/ccltO3Z2.s:224    .text:0000000000000158 .L13
GAS LISTING /tmp/ccltO3Z2.s 			page 14


     /tmp/ccltO3Z2.s:194    .text:0000000000000124 .L10
     /tmp/ccltO3Z2.s:203    .text:0000000000000138 .L8
     /tmp/ccltO3Z2.s:313    .text:00000000000001e0 .L17
     /tmp/ccltO3Z2.s:333    .text:0000000000000204 .L20
     /tmp/ccltO3Z2.s:340    .text:0000000000000214 .L14
     /tmp/ccltO3Z2.s:302    .text:00000000000001d4 .L21
     /tmp/ccltO3Z2.s:308    .text:00000000000001dc .L16
     /tmp/ccltO3Z2.s:1347   .debug_abbrev:0000000000000000 .Ldebug_abbrev0
     /tmp/ccltO3Z2.s:2616   .debug_str:00000000000004e4 .LASF94
     /tmp/ccltO3Z2.s:2638   .debug_str:000000000000066e .LASF95
     /tmp/ccltO3Z2.s:2488   .debug_str:0000000000000129 .LASF96
     /tmp/ccltO3Z2.s:5      .text:0000000000000000 .Ltext0
     /tmp/ccltO3Z2.s:375    .text:0000000000000228 .Letext0
     /tmp/ccltO3Z2.s:2452   .debug_line:0000000000000000 .Ldebug_line0
     /tmp/ccltO3Z2.s:2548   .debug_str:00000000000002e2 .LASF0
     /tmp/ccltO3Z2.s:2568   .debug_str:0000000000000352 .LASF1
     /tmp/ccltO3Z2.s:2540   .debug_str:000000000000029c .LASF2
     /tmp/ccltO3Z2.s:2520   .debug_str:0000000000000229 .LASF4
     /tmp/ccltO3Z2.s:2602   .debug_str:0000000000000477 .LASF3
     /tmp/ccltO3Z2.s:2476   .debug_str:00000000000000c8 .LASF5
     /tmp/ccltO3Z2.s:2496   .debug_str:0000000000000173 .LASF6
     /tmp/ccltO3Z2.s:2570   .debug_str:0000000000000365 .LASF7
     /tmp/ccltO3Z2.s:2546   .debug_str:00000000000002cf .LASF8
     /tmp/ccltO3Z2.s:2630   .debug_str:0000000000000629 .LASF9
     /tmp/ccltO3Z2.s:2512   .debug_str:00000000000001db .LASF10
     /tmp/ccltO3Z2.s:2582   .debug_str:00000000000003d4 .LASF11
     /tmp/ccltO3Z2.s:2618   .debug_str:00000000000005a8 .LASF12
     /tmp/ccltO3Z2.s:2478   .debug_str:00000000000000cf .LASF13
     /tmp/ccltO3Z2.s:2462   .debug_str:0000000000000042 .LASF14
     /tmp/ccltO3Z2.s:2482   .debug_str:00000000000000f7 .LASF15
     /tmp/ccltO3Z2.s:2596   .debug_str:0000000000000446 .LASF16
     /tmp/ccltO3Z2.s:2490   .debug_str:000000000000014c .LASF17
     /tmp/ccltO3Z2.s:2542   .debug_str:00000000000002aa .LASF33
     /tmp/ccltO3Z2.s:2554   .debug_str:00000000000002fb .LASF34
     /tmp/ccltO3Z2.s:2642   .debug_str:000000000000069b .LASF18
     /tmp/ccltO3Z2.s:2660   .debug_str:0000000000000715 .LASF19
     /tmp/ccltO3Z2.s:2502   .debug_str:000000000000019b .LASF20
     /tmp/ccltO3Z2.s:2654   .debug_str:00000000000006eb .LASF21
     /tmp/ccltO3Z2.s:2644   .debug_str:00000000000006a0 .LASF22
     /tmp/ccltO3Z2.s:2636   .debug_str:0000000000000669 .LASF23
     /tmp/ccltO3Z2.s:2592   .debug_str:000000000000041f .LASF24
     /tmp/ccltO3Z2.s:2576   .debug_str:0000000000000396 .LASF26
     /tmp/ccltO3Z2.s:2600   .debug_str:0000000000000469 .LASF25
     /tmp/ccltO3Z2.s:2632   .debug_str:0000000000000639 .LASF27
     /tmp/ccltO3Z2.s:2564   .debug_str:000000000000033a .LASF52
     /tmp/ccltO3Z2.s:2604   .debug_str:0000000000000489 .LASF28
     /tmp/ccltO3Z2.s:2656   .debug_str:00000000000006f0 .LASF30
     /tmp/ccltO3Z2.s:2586   .debug_str:00000000000003ed .LASF29
     /tmp/ccltO3Z2.s:2664   .debug_str:0000000000000720 .LASF31
     /tmp/ccltO3Z2.s:2648   .debug_str:00000000000006b6 .LASF56
     /tmp/ccltO3Z2.s:2620   .debug_str:00000000000005b7 .LASF58
     /tmp/ccltO3Z2.s:2506   .debug_str:00000000000001af .LASF32
     /tmp/ccltO3Z2.s:2466   .debug_str:0000000000000069 .LASF35
     /tmp/ccltO3Z2.s:2526   .debug_str:0000000000000244 .LASF36
     /tmp/ccltO3Z2.s:2558   .debug_str:000000000000030c .LASF37
     /tmp/ccltO3Z2.s:2626   .debug_str:0000000000000612 .LASF38
     /tmp/ccltO3Z2.s:2552   .debug_str:00000000000002f5 .LASF39
GAS LISTING /tmp/ccltO3Z2.s 			page 15


     /tmp/ccltO3Z2.s:2524   .debug_str:000000000000023b .LASF40
     /tmp/ccltO3Z2.s:2456   .debug_str:0000000000000005 .LASF41
     /tmp/ccltO3Z2.s:2458   .debug_str:000000000000000d .LASF42
     /tmp/ccltO3Z2.s:2612   .debug_str:00000000000004bd .LASF43
     /tmp/ccltO3Z2.s:2544   .debug_str:00000000000002b3 .LASF44
     /tmp/ccltO3Z2.s:2504   .debug_str:00000000000001a0 .LASF45
     /tmp/ccltO3Z2.s:2560   .debug_str:0000000000000316 .LASF47
     /tmp/ccltO3Z2.s:2652   .debug_str:00000000000006d4 .LASF86
     /tmp/ccltO3Z2.s:2486   .debug_str:000000000000011b .LASF46
     /tmp/ccltO3Z2.s:2516   .debug_str:00000000000001f6 .LASF48
     /tmp/ccltO3Z2.s:2610   .debug_str:00000000000004b5 .LASF97
     /tmp/ccltO3Z2.s:2606   .debug_str:0000000000000493 .LASF98
     /tmp/ccltO3Z2.s:2514   .debug_str:00000000000001e9 .LASF49
     /tmp/ccltO3Z2.s:2562   .debug_str:0000000000000332 .LASF50
     /tmp/ccltO3Z2.s:2522   .debug_str:0000000000000230 .LASF51
     /tmp/ccltO3Z2.s:2622   .debug_str:00000000000005d4 .LASF53
     /tmp/ccltO3Z2.s:2510   .debug_str:00000000000001cc .LASF54
     /tmp/ccltO3Z2.s:2460   .debug_str:0000000000000019 .LASF55
     /tmp/ccltO3Z2.s:2646   .debug_str:00000000000006a9 .LASF57
     /tmp/ccltO3Z2.s:2508   .debug_str:00000000000001b4 .LASF59
     /tmp/ccltO3Z2.s:2650   .debug_str:00000000000006c3 .LASF73
     /tmp/ccltO3Z2.s:2594   .debug_str:000000000000042a .LASF75
     /tmp/ccltO3Z2.s:2500   .debug_str:000000000000018e .LASF60
     /tmp/ccltO3Z2.s:2470   .debug_str:0000000000000083 .LASF61
     /tmp/ccltO3Z2.s:2658   .debug_str:0000000000000709 .LASF62
     /tmp/ccltO3Z2.s:2464   .debug_str:0000000000000052 .LASF63
     /tmp/ccltO3Z2.s:2628   .debug_str:000000000000061c .LASF64
     /tmp/ccltO3Z2.s:2640   .debug_str:0000000000000680 .LASF65
     /tmp/ccltO3Z2.s:2532   .debug_str:000000000000026a .LASF66
     /tmp/ccltO3Z2.s:2474   .debug_str:00000000000000af .LASF67
     /tmp/ccltO3Z2.s:2534   .debug_str:0000000000000277 .LASF68
     /tmp/ccltO3Z2.s:2578   .debug_str:00000000000003bd .LASF69
     /tmp/ccltO3Z2.s:2614   .debug_str:00000000000004cc .LASF70
     /tmp/ccltO3Z2.s:2598   .debug_str:000000000000045c .LASF71
     /tmp/ccltO3Z2.s:2484   .debug_str:0000000000000103 .LASF72
     /tmp/ccltO3Z2.s:2528   .debug_str:000000000000024c .LASF74
     /tmp/ccltO3Z2.s:2590   .debug_str:00000000000003fb .LASF76
     /tmp/ccltO3Z2.s:2574   .debug_str:0000000000000391 .LASF77
     /tmp/ccltO3Z2.s:2662   .debug_str:000000000000071a .LASF78
     /tmp/ccltO3Z2.s:2492   .debug_str:0000000000000162 .LASF79
     /tmp/ccltO3Z2.s:2566   .debug_str:000000000000034b .LASF80
     /tmp/ccltO3Z2.s:2572   .debug_str:0000000000000378 .LASF81
     /tmp/ccltO3Z2.s:2530   .debug_str:0000000000000265 .LASF82
     /tmp/ccltO3Z2.s:2580   .debug_str:00000000000003ca .LASF83
     /tmp/ccltO3Z2.s:2468   .debug_str:0000000000000071 .LASF84
     /tmp/ccltO3Z2.s:2494   .debug_str:000000000000016e .LASF85
     /tmp/ccltO3Z2.s:2480   .debug_str:00000000000000df .LASF87
     /tmp/ccltO3Z2.s:2498   .debug_str:000000000000017a .LASF99
     /tmp/ccltO3Z2.s:2518   .debug_str:000000000000021e .LASF88
     /tmp/ccltO3Z2.s:2634   .debug_str:0000000000000657 .LASF89
     /tmp/ccltO3Z2.s:2536   .debug_str:0000000000000281 .LASF100
     /tmp/ccltO3Z2.s:2588   .debug_str:00000000000003f6 .LASF90
     /tmp/ccltO3Z2.s:2584   .debug_str:00000000000003e3 .LASF91
     /tmp/ccltO3Z2.s:2550   .debug_str:00000000000002ef .LASF92
     /tmp/ccltO3Z2.s:2472   .debug_str:000000000000009d .LASF101
     /tmp/ccltO3Z2.s:286    .text:00000000000001bc .LFB22
     /tmp/ccltO3Z2.s:355    .text:0000000000000228 .LFE22
GAS LISTING /tmp/ccltO3Z2.s 			page 16


     /tmp/ccltO3Z2.s:2308   .debug_loc:0000000000000000 .LLST5
     /tmp/ccltO3Z2.s:307    .text:00000000000001dc .LVL19
     /tmp/ccltO3Z2.s:337    .text:0000000000000210 .LVL22
     /tmp/ccltO3Z2.s:2426   .debug_ranges:0000000000000000 .Ldebug_ranges0
     /tmp/ccltO3Z2.s:2322   .debug_loc:0000000000000039 .LLST6
     /tmp/ccltO3Z2.s:149    .text:00000000000000e0 .LFB20
     /tmp/ccltO3Z2.s:280    .text:00000000000001bc .LFE20
     /tmp/ccltO3Z2.s:2333   .debug_loc:000000000000006f .LLST3
     /tmp/ccltO3Z2.s:2358   .debug_loc:00000000000000e0 .LLST4
     /tmp/ccltO3Z2.s:186    .text:0000000000000118 .LBB19
     /tmp/ccltO3Z2.s:263    .text:00000000000001ac .LVL14
     /tmp/ccltO3Z2.s:202    .text:0000000000000138 .LVL12
     /tmp/ccltO3Z2.s:10     .text:0000000000000000 .LFB19
     /tmp/ccltO3Z2.s:143    .text:00000000000000e0 .LFE19
     /tmp/ccltO3Z2.s:2369   .debug_loc:0000000000000116 .LLST0
     /tmp/ccltO3Z2.s:2454   .debug_str:0000000000000000 .LASF93
     /tmp/ccltO3Z2.s:2391   .debug_loc:0000000000000175 .LLST1
     /tmp/ccltO3Z2.s:62     .text:0000000000000050 .LBB10
     /tmp/ccltO3Z2.s:73     .text:0000000000000060 .LBE10
     /tmp/ccltO3Z2.s:2402   .debug_loc:00000000000001ab .LLST2
     /tmp/ccltO3Z2.s:29     .text:000000000000001c .LBB6
     /tmp/ccltO3Z2.s:128    .text:00000000000000cc .LVL8
     /tmp/ccltO3Z2.s:47     .text:000000000000003c .LVL2
     /tmp/ccltO3Z2.s:2556   .debug_str:0000000000000303 .LASF102
     /tmp/ccltO3Z2.s:2624   .debug_str:00000000000005ea .LASF103
     /tmp/ccltO3Z2.s:2538   .debug_str:0000000000000295 .LASF104
     /tmp/ccltO3Z2.s:2608   .debug_str:00000000000004a5 .LASF105
     /tmp/ccltO3Z2.s:289    .text:00000000000001bc .LVL17
     /tmp/ccltO3Z2.s:301    .text:00000000000001d4 .LVL18
     /tmp/ccltO3Z2.s:312    .text:00000000000001e0 .LVL20
     /tmp/ccltO3Z2.s:321    .text:00000000000001ec .LVL21
     /tmp/ccltO3Z2.s:339    .text:0000000000000214 .LVL23
     /tmp/ccltO3Z2.s:167    .text:00000000000000fc .LVL10
     /tmp/ccltO3Z2.s:178    .text:000000000000010c .LVL11
     /tmp/ccltO3Z2.s:223    .text:0000000000000158 .LVL13
     /tmp/ccltO3Z2.s:267    .text:00000000000001b4 .LVL15
     /tmp/ccltO3Z2.s:275    .text:00000000000001b8 .LVL16
     /tmp/ccltO3Z2.s:14     .text:0000000000000000 .LVL0
     /tmp/ccltO3Z2.s:38     .text:0000000000000028 .LVL1
     /tmp/ccltO3Z2.s:84     .text:000000000000006c .LVL6
     /tmp/ccltO3Z2.s:90     .text:0000000000000078 .LVL7
     /tmp/ccltO3Z2.s:132    .text:00000000000000d4 .LVL9
     /tmp/ccltO3Z2.s:61     .text:0000000000000050 .LVL3
     /tmp/ccltO3Z2.s:66     .text:0000000000000058 .LVL4
     /tmp/ccltO3Z2.s:71     .text:0000000000000060 .LVL5
     /tmp/ccltO3Z2.s:381    .debug_info:0000000000000000 .Ldebug_info0
     /tmp/ccltO3Z2.s:42     .text:0000000000000028 .LBE6
     /tmp/ccltO3Z2.s:93     .text:0000000000000078 .LBB11
     /tmp/ccltO3Z2.s:135    .text:00000000000000d4 .LBE11
     /tmp/ccltO3Z2.s:174    .text:0000000000000108 .LBB18
     /tmp/ccltO3Z2.s:204    .text:0000000000000138 .LBE18
     /tmp/ccltO3Z2.s:227    .text:0000000000000158 .LBB23
     /tmp/ccltO3Z2.s:271    .text:00000000000001b4 .LBE23
     /tmp/ccltO3Z2.s:197    .text:0000000000000124 .LBE19
     /tmp/ccltO3Z2.s:228    .text:0000000000000158 .LBB22
     /tmp/ccltO3Z2.s:270    .text:00000000000001b4 .LBE22
     /tmp/ccltO3Z2.s:304    .text:00000000000001d4 .LBB26
GAS LISTING /tmp/ccltO3Z2.s 			page 17


     /tmp/ccltO3Z2.s:314    .text:00000000000001e0 .LBE26
     /tmp/ccltO3Z2.s:319    .text:00000000000001ec .LBB27
     /tmp/ccltO3Z2.s:341    .text:0000000000000214 .LBE27

UNDEFINED SYMBOLS
_ZN8MemAlloc9mem_allocEm
HEAP_START_ADDR
HEAP_END_ADDR
_ZN8MemAlloc13bytesToBlocksEm
_ZN8MemAlloc8mem_freeEPv
_ZdlPv
