GAS LISTING /tmp/cc7QhSPM.s 			page 1


   1              		.file	"syscall_c.cpp"
   2              		.option pic
   3              		.option norelax
   4              		.text
   5              	.Ltext0:
   6              		.align	2
   7              		.globl	_Z9mem_allocm
   9              	_Z9mem_allocm:
  10              	.LFB19:
  11              		.file 1 "src/syscall_c.cpp"
   1:src/syscall_c.cpp **** #include "../lib/hw.h"
   2:src/syscall_c.cpp **** #include "../h/syscall_c.hpp"
   3:src/syscall_c.cpp **** 
   4:src/syscall_c.cpp **** void *mem_alloc(size_t size) {
  12              		.loc 1 4 30
  13              		.cfi_startproc
  14              	.LVL0:
  15 0000 130101FF 		addi	sp,sp,-16
  16              		.cfi_def_cfa_offset 16
  17 0004 23348100 		sd	s0,8(sp)
  18              		.cfi_offset 8, -8
  19 0008 13040101 		addi	s0,sp,16
  20              		.cfi_def_cfa 8, 0
   5:src/syscall_c.cpp ****     size_t numOfBlocks=size/MEM_BLOCK_SIZE;
  21              		.loc 1 5 5
  22              		.loc 1 5 12 is_stmt 0
  23 000c 93576500 		srli	a5,a0,6
  24              	.LVL1:
   6:src/syscall_c.cpp ****     if(size%MEM_BLOCK_SIZE) numOfBlocks++;
  25              		.loc 1 6 5 is_stmt 1
  26              		.loc 1 6 12 is_stmt 0
  27 0010 1375F503 		andi	a0,a0,63
  28              	.LVL2:
  29              		.loc 1 6 5
  30 0014 63040500 		beqz	a0,.L2
  31              		.loc 1 6 29 is_stmt 1 discriminator 1
  32              		.loc 1 6 40 is_stmt 0 discriminator 1
  33 0018 93871700 		addi	a5,a5,1
  34              	.LVL3:
  35              	.L2:
   7:src/syscall_c.cpp ****     uint64 code=0x01;
  36              		.loc 1 7 5 is_stmt 1
   8:src/syscall_c.cpp ****     __asm__ volatile("mv a1, %0" : : "r"(numOfBlocks));
  37              		.loc 1 8 5
  38              		.loc 1 8 55 is_stmt 0
  39              	#APP
  40              	# 8 "src/syscall_c.cpp" 1
   9              	    __asm__ volatile("mv a0, %0" : : "r"(code));
  41              		mv a1, a5
  42              	# 0 "" 2
  43              		.loc 1 9 5 is_stmt 1
  44              		.loc 1 9 48 is_stmt 0
  45              	#NO_APP
  46 0020 93071000 		li	a5,1
  47              	.LVL4:
  48              	#APP
  49              	# 9 "src/syscall_c.cpp" 1
GAS LISTING /tmp/cc7QhSPM.s 			page 2


  10              	    __asm__ volatile("ecall");
  50              		mv a0, a5
  51              	# 0 "" 2
  52              		.loc 1 10 5 is_stmt 1
  53              		.loc 1 10 30 is_stmt 0
  54              	# 10 "src/syscall_c.cpp" 1
  11              	    uint64 ret;
  55              		ecall
  56              	# 0 "" 2
  57              		.loc 1 11 5 is_stmt 1
  12:src/syscall_c.cpp ****     __asm__ volatile("mv %0, a0" : "=r"(ret));
  58              		.loc 1 12 5
  59              		.loc 1 12 46 is_stmt 0
  60              	# 12 "src/syscall_c.cpp" 1
  13              	    return (void*) ret;
  61              		mv a0, a0
  62              	# 0 "" 2
  63              	.LVL5:
  64              		.loc 1 13 5 is_stmt 1
  14:src/syscall_c.cpp **** }
  65              		.loc 1 14 1 is_stmt 0
  66              	#NO_APP
  67 0030 03348100 		ld	s0,8(sp)
  68              		.cfi_restore 8
  69              		.cfi_def_cfa 2, 16
  70 0034 13010101 		addi	sp,sp,16
  71              		.cfi_def_cfa_offset 0
  72 0038 67800000 		jr	ra
  73              		.cfi_endproc
  74              	.LFE19:
  76              		.align	2
  77              		.globl	_Z8mem_freePv
  79              	_Z8mem_freePv:
  80              	.LFB20:
  15:src/syscall_c.cpp **** 
  16:src/syscall_c.cpp **** int mem_free(void* addr) {
  81              		.loc 1 16 26 is_stmt 1
  82              		.cfi_startproc
  83              	.LVL6:
  84 003c 130101FF 		addi	sp,sp,-16
  85              		.cfi_def_cfa_offset 16
  86 0040 23348100 		sd	s0,8(sp)
  87              		.cfi_offset 8, -8
  88 0044 13040101 		addi	s0,sp,16
  89              		.cfi_def_cfa 8, 0
  17:src/syscall_c.cpp ****     uint64 code=0x02;
  90              		.loc 1 17 5
  91              	.LVL7:
  18:src/syscall_c.cpp ****     __asm__ volatile("mv a1, %0" : : "r"(addr));
  92              		.loc 1 18 5
  93              		.loc 1 18 48 is_stmt 0
  94              	#APP
  95              	# 18 "src/syscall_c.cpp" 1
  19              	    __asm__ volatile("mv a0, %0" : : "r"(code));
  96              		mv a1, a0
  97              	# 0 "" 2
  98              		.loc 1 19 5 is_stmt 1
GAS LISTING /tmp/cc7QhSPM.s 			page 3


  99              		.loc 1 19 48 is_stmt 0
 100              	#NO_APP
 101 004c 93072000 		li	a5,2
 102              	#APP
 103              	# 19 "src/syscall_c.cpp" 1
  20              	    __asm__ volatile("ecall");
 104              		mv a0, a5
 105              	# 0 "" 2
 106              		.loc 1 20 5 is_stmt 1
 107              		.loc 1 20 30 is_stmt 0
 108              	# 20 "src/syscall_c.cpp" 1
  21              	    uint64 ret;
 109              		ecall
 110              	# 0 "" 2
 111              		.loc 1 21 5 is_stmt 1
  22:src/syscall_c.cpp ****     __asm__ volatile("mv %0, a0" : "=r"(ret));
 112              		.loc 1 22 5
 113              		.loc 1 22 46 is_stmt 0
 114              	# 22 "src/syscall_c.cpp" 1
  23              	    return (int)ret;
 115              		mv a0, a0
 116              	# 0 "" 2
 117              	.LVL8:
 118              		.loc 1 23 5 is_stmt 1
  24:src/syscall_c.cpp **** }
 119              		.loc 1 24 1 is_stmt 0
 120              	#NO_APP
 121 005c 1B050500 		sext.w	a0,a0
 122              	.LVL9:
 123 0060 03348100 		ld	s0,8(sp)
 124              		.cfi_restore 8
 125              		.cfi_def_cfa 2, 16
 126 0064 13010101 		addi	sp,sp,16
 127              		.cfi_def_cfa_offset 0
 128 0068 67800000 		jr	ra
 129              		.cfi_endproc
 130              	.LFE20:
 132              		.align	2
 133              		.globl	_Z13thread_createPP3TCBPFvPvES2_
 135              	_Z13thread_createPP3TCBPFvPvES2_:
 136              	.LFB21:
  25:src/syscall_c.cpp **** 
  26:src/syscall_c.cpp **** int thread_create(
  27:src/syscall_c.cpp ****         thread_t * handle,
  28:src/syscall_c.cpp ****         void(*start_routine)(void*),
  29:src/syscall_c.cpp ****         void* arg){
 137              		.loc 1 29 19 is_stmt 1
 138              		.cfi_startproc
 139              	.LVL10:
 140 006c 130101FF 		addi	sp,sp,-16
 141              		.cfi_def_cfa_offset 16
 142 0070 23348100 		sd	s0,8(sp)
 143              		.cfi_offset 8, -8
 144 0074 13040101 		addi	s0,sp,16
 145              		.cfi_def_cfa 8, 0
  30:src/syscall_c.cpp ****     uint64 code=0x11;
 146              		.loc 1 30 5
GAS LISTING /tmp/cc7QhSPM.s 			page 4


 147              	.LVL11:
  31:src/syscall_c.cpp ****     __asm__ volatile("mv a3,%0": :"r"(arg));
 148              		.loc 1 31 5
 149              		.loc 1 31 44 is_stmt 0
 150              	#APP
 151              	# 31 "src/syscall_c.cpp" 1
  32              	    __asm__ volatile("mv a2,%0": :"r"(start_routine));
 152              		mv a3,a2
 153              	# 0 "" 2
 154              		.loc 1 32 5 is_stmt 1
 155              		.loc 1 32 54 is_stmt 0
 156              	# 32 "src/syscall_c.cpp" 1
  33              	    __asm__ volatile("mv a1,%0": :"r"(handle));
 157              		mv a2,a1
 158              	# 0 "" 2
 159              		.loc 1 33 5 is_stmt 1
 160              		.loc 1 33 47 is_stmt 0
 161              	# 33 "src/syscall_c.cpp" 1
  34              	    __asm__ volatile("mv a0,%0": :"r"(code));
 162              		mv a1,a0
 163              	# 0 "" 2
 164              		.loc 1 34 5 is_stmt 1
 165              		.loc 1 34 45 is_stmt 0
 166              	#NO_APP
 167 0084 93071001 		li	a5,17
 168              	#APP
 169              	# 34 "src/syscall_c.cpp" 1
  35              	    __asm__ volatile("ecall");
 170              		mv a0,a5
 171              	# 0 "" 2
 172              		.loc 1 35 5 is_stmt 1
 173              		.loc 1 35 30 is_stmt 0
 174              	# 35 "src/syscall_c.cpp" 1
  36              	    uint64 ret;
 175              		ecall
 176              	# 0 "" 2
 177              		.loc 1 36 5 is_stmt 1
  37:src/syscall_c.cpp ****     __asm__ volatile("mv %0,a0": "=r"(ret));
 178              		.loc 1 37 5
 179              		.loc 1 37 44 is_stmt 0
 180              	# 37 "src/syscall_c.cpp" 1
  38              	    return (int)ret;
 181              		mv a0,a0
 182              	# 0 "" 2
 183              	.LVL12:
 184              		.loc 1 38 5 is_stmt 1
  39:src/syscall_c.cpp **** }
 185              		.loc 1 39 1 is_stmt 0
 186              	#NO_APP
 187 0094 1B050500 		sext.w	a0,a0
 188              	.LVL13:
 189 0098 03348100 		ld	s0,8(sp)
 190              		.cfi_restore 8
 191              		.cfi_def_cfa 2, 16
 192 009c 13010101 		addi	sp,sp,16
 193              		.cfi_def_cfa_offset 0
 194 00a0 67800000 		jr	ra
GAS LISTING /tmp/cc7QhSPM.s 			page 5


 195              		.cfi_endproc
 196              	.LFE21:
 198              		.align	2
 199              		.globl	_Z11thread_exitv
 201              	_Z11thread_exitv:
 202              	.LFB22:
  40:src/syscall_c.cpp **** 
  41:src/syscall_c.cpp **** int thread_exit(){
 203              		.loc 1 41 18 is_stmt 1
 204              		.cfi_startproc
 205 00a4 130101FF 		addi	sp,sp,-16
 206              		.cfi_def_cfa_offset 16
 207 00a8 23348100 		sd	s0,8(sp)
 208              		.cfi_offset 8, -8
 209 00ac 13040101 		addi	s0,sp,16
 210              		.cfi_def_cfa 8, 0
  42:src/syscall_c.cpp ****     uint64 code=0x12;
 211              		.loc 1 42 5
 212              	.LVL14:
  43:src/syscall_c.cpp ****     __asm__ volatile("mv a0,%0": :"r"(code));
 213              		.loc 1 43 5
 214              		.loc 1 43 45 is_stmt 0
 215 00b0 93072001 		li	a5,18
 216              	#APP
 217              	# 43 "src/syscall_c.cpp" 1
  44              	    __asm__ volatile("ecall");
 218              		mv a0,a5
 219              	# 0 "" 2
 220              		.loc 1 44 5 is_stmt 1
 221              		.loc 1 44 30 is_stmt 0
 222              	# 44 "src/syscall_c.cpp" 1
  45              	    uint64 ret;
 223              		ecall
 224              	# 0 "" 2
 225              		.loc 1 45 5 is_stmt 1
  46:src/syscall_c.cpp ****     __asm__ volatile("mv %0,a0":"=r"(ret));
 226              		.loc 1 46 5
 227              		.loc 1 46 43 is_stmt 0
 228              	# 46 "src/syscall_c.cpp" 1
  47              	    return (int) ret;
 229              		mv a0,a0
 230              	# 0 "" 2
 231              	.LVL15:
 232              		.loc 1 47 5 is_stmt 1
  48:src/syscall_c.cpp **** }
 233              		.loc 1 48 1 is_stmt 0
 234              	#NO_APP
 235 00c0 1B050500 		sext.w	a0,a0
 236              	.LVL16:
 237 00c4 03348100 		ld	s0,8(sp)
 238              		.cfi_restore 8
 239              		.cfi_def_cfa 2, 16
 240 00c8 13010101 		addi	sp,sp,16
 241              		.cfi_def_cfa_offset 0
 242 00cc 67800000 		jr	ra
 243              		.cfi_endproc
 244              	.LFE22:
GAS LISTING /tmp/cc7QhSPM.s 			page 6


 246              		.align	2
 247              		.globl	_Z15thread_dispatchv
 249              	_Z15thread_dispatchv:
 250              	.LFB23:
  49:src/syscall_c.cpp **** 
  50:src/syscall_c.cpp **** void thread_dispatch(){
 251              		.loc 1 50 23 is_stmt 1
 252              		.cfi_startproc
 253 00d0 130101FF 		addi	sp,sp,-16
 254              		.cfi_def_cfa_offset 16
 255 00d4 23348100 		sd	s0,8(sp)
 256              		.cfi_offset 8, -8
 257 00d8 13040101 		addi	s0,sp,16
 258              		.cfi_def_cfa 8, 0
  51:src/syscall_c.cpp ****     uint64 code=0x13;
 259              		.loc 1 51 5
 260              	.LVL17:
  52:src/syscall_c.cpp ****     __asm__ volatile("mv a0,%0": :"r"(code));
 261              		.loc 1 52 5
 262              		.loc 1 52 45 is_stmt 0
 263 00dc 93073001 		li	a5,19
 264              	#APP
 265              	# 52 "src/syscall_c.cpp" 1
  53              	    __asm__ volatile("ecall");
 266              		mv a0,a5
 267              	# 0 "" 2
 268              		.loc 1 53 5 is_stmt 1
 269              		.loc 1 53 30 is_stmt 0
 270              	# 53 "src/syscall_c.cpp" 1
  54              	}
 271              		ecall
 272              	# 0 "" 2
 273              		.loc 1 54 1
 274              	#NO_APP
 275 00e8 03348100 		ld	s0,8(sp)
 276              		.cfi_restore 8
 277              		.cfi_def_cfa 2, 16
 278 00ec 13010101 		addi	sp,sp,16
 279              		.cfi_def_cfa_offset 0
 280 00f0 67800000 		jr	ra
 281              		.cfi_endproc
 282              	.LFE23:
 284              		.align	2
 285              		.globl	_Z11thread_joinP3TCB
 287              	_Z11thread_joinP3TCB:
 288              	.LFB24:
  55:src/syscall_c.cpp **** 
  56:src/syscall_c.cpp **** void thread_join(thread_t handle){
 289              		.loc 1 56 34 is_stmt 1
 290              		.cfi_startproc
 291              	.LVL18:
 292 00f4 130101FF 		addi	sp,sp,-16
 293              		.cfi_def_cfa_offset 16
 294 00f8 23348100 		sd	s0,8(sp)
 295              		.cfi_offset 8, -8
 296 00fc 13040101 		addi	s0,sp,16
 297              		.cfi_def_cfa 8, 0
GAS LISTING /tmp/cc7QhSPM.s 			page 7


  57:src/syscall_c.cpp ****     uint64 code=0x14;
 298              		.loc 1 57 5
 299              	.LVL19:
  58:src/syscall_c.cpp ****     __asm__ volatile("mv a1,%0": :"r"(handle));
 300              		.loc 1 58 5
 301              		.loc 1 58 47 is_stmt 0
 302              	#APP
 303              	# 58 "src/syscall_c.cpp" 1
  59              	    __asm__ volatile("mv a0,%0": :"r"(code));
 304              		mv a1,a0
 305              	# 0 "" 2
 306              		.loc 1 59 5 is_stmt 1
 307              		.loc 1 59 45 is_stmt 0
 308              	#NO_APP
 309 0104 93074001 		li	a5,20
 310              	#APP
 311              	# 59 "src/syscall_c.cpp" 1
  60              	    __asm__ volatile("ecall");
 312              		mv a0,a5
 313              	# 0 "" 2
 314              		.loc 1 60 5 is_stmt 1
 315              		.loc 1 60 30 is_stmt 0
 316              	# 60 "src/syscall_c.cpp" 1
  61              	}
 317              		ecall
 318              	# 0 "" 2
 319              		.loc 1 61 1
 320              	#NO_APP
 321 0110 03348100 		ld	s0,8(sp)
 322              		.cfi_restore 8
 323              		.cfi_def_cfa 2, 16
 324 0114 13010101 		addi	sp,sp,16
 325              		.cfi_def_cfa_offset 0
 326 0118 67800000 		jr	ra
 327              		.cfi_endproc
 328              	.LFE24:
 330              		.align	2
 331              		.globl	_Z8sem_openPP3Semj
 333              	_Z8sem_openPP3Semj:
 334              	.LFB25:
  62:src/syscall_c.cpp **** 
  63:src/syscall_c.cpp **** int sem_open(sem_t* handle, unsigned init){
 335              		.loc 1 63 43 is_stmt 1
 336              		.cfi_startproc
 337              	.LVL20:
 338 011c 130101FF 		addi	sp,sp,-16
 339              		.cfi_def_cfa_offset 16
 340 0120 23348100 		sd	s0,8(sp)
 341              		.cfi_offset 8, -8
 342 0124 13040101 		addi	s0,sp,16
 343              		.cfi_def_cfa 8, 0
  64:src/syscall_c.cpp ****     uint64 code=0x21;
 344              		.loc 1 64 5
 345              	.LVL21:
  65:src/syscall_c.cpp ****     __asm__ volatile("mv a2,%0": :"r"(init));
 346              		.loc 1 65 5
 347              		.loc 1 65 45 is_stmt 0
GAS LISTING /tmp/cc7QhSPM.s 			page 8


 348              	#APP
 349              	# 65 "src/syscall_c.cpp" 1
  66              	    __asm__ volatile("mv a1,%0": :"r"(handle));
 350              		mv a2,a1
 351              	# 0 "" 2
 352              		.loc 1 66 5 is_stmt 1
 353              		.loc 1 66 47 is_stmt 0
 354              	# 66 "src/syscall_c.cpp" 1
  67              	    __asm__ volatile("mv a0,%0": :"r"(code));
 355              		mv a1,a0
 356              	# 0 "" 2
 357              		.loc 1 67 5 is_stmt 1
 358              		.loc 1 67 45 is_stmt 0
 359              	#NO_APP
 360 0130 93071002 		li	a5,33
 361              	#APP
 362              	# 67 "src/syscall_c.cpp" 1
  68              	    __asm__ volatile("ecall");
 363              		mv a0,a5
 364              	# 0 "" 2
 365              		.loc 1 68 5 is_stmt 1
 366              		.loc 1 68 30 is_stmt 0
 367              	# 68 "src/syscall_c.cpp" 1
  69              	    uint64 ret;
 368              		ecall
 369              	# 0 "" 2
 370              		.loc 1 69 5 is_stmt 1
  70:src/syscall_c.cpp ****     __asm__ volatile("mv %0,a0":"=r"(ret));
 371              		.loc 1 70 5
 372              		.loc 1 70 43 is_stmt 0
 373              	# 70 "src/syscall_c.cpp" 1
  71              	    return (int)ret;
 374              		mv a0,a0
 375              	# 0 "" 2
 376              	.LVL22:
 377              		.loc 1 71 5 is_stmt 1
  72:src/syscall_c.cpp **** }
 378              		.loc 1 72 1 is_stmt 0
 379              	#NO_APP
 380 0140 1B050500 		sext.w	a0,a0
 381              	.LVL23:
 382 0144 03348100 		ld	s0,8(sp)
 383              		.cfi_restore 8
 384              		.cfi_def_cfa 2, 16
 385 0148 13010101 		addi	sp,sp,16
 386              		.cfi_def_cfa_offset 0
 387 014c 67800000 		jr	ra
 388              		.cfi_endproc
 389              	.LFE25:
 391              		.align	2
 392              		.globl	_Z9sem_closeP3Sem
 394              	_Z9sem_closeP3Sem:
 395              	.LFB26:
  73:src/syscall_c.cpp **** int sem_close(sem_t handle){
 396              		.loc 1 73 28 is_stmt 1
 397              		.cfi_startproc
 398              	.LVL24:
GAS LISTING /tmp/cc7QhSPM.s 			page 9


 399 0150 130101FF 		addi	sp,sp,-16
 400              		.cfi_def_cfa_offset 16
 401 0154 23348100 		sd	s0,8(sp)
 402              		.cfi_offset 8, -8
 403 0158 13040101 		addi	s0,sp,16
 404              		.cfi_def_cfa 8, 0
  74:src/syscall_c.cpp ****     uint64 code=0x22;
 405              		.loc 1 74 5
 406              	.LVL25:
  75:src/syscall_c.cpp ****     __asm__ volatile("mv a1,%0": :"r"(handle));
 407              		.loc 1 75 5
 408              		.loc 1 75 47 is_stmt 0
 409              	#APP
 410              	# 75 "src/syscall_c.cpp" 1
  76              	    __asm__ volatile("mv a0,%0": :"r"(code));
 411              		mv a1,a0
 412              	# 0 "" 2
 413              		.loc 1 76 5 is_stmt 1
 414              		.loc 1 76 45 is_stmt 0
 415              	#NO_APP
 416 0160 93072002 		li	a5,34
 417              	#APP
 418              	# 76 "src/syscall_c.cpp" 1
  77              	    __asm__ volatile("ecall");
 419              		mv a0,a5
 420              	# 0 "" 2
 421              		.loc 1 77 5 is_stmt 1
 422              		.loc 1 77 30 is_stmt 0
 423              	# 77 "src/syscall_c.cpp" 1
  78              	    uint64 ret;
 424              		ecall
 425              	# 0 "" 2
 426              		.loc 1 78 5 is_stmt 1
  79:src/syscall_c.cpp ****     __asm__ volatile("mv %0,a0":"=r"(ret));
 427              		.loc 1 79 5
 428              		.loc 1 79 43 is_stmt 0
 429              	# 79 "src/syscall_c.cpp" 1
  80              	    return (int)ret;
 430              		mv a0,a0
 431              	# 0 "" 2
 432              	.LVL26:
 433              		.loc 1 80 5 is_stmt 1
  81:src/syscall_c.cpp **** }
 434              		.loc 1 81 1 is_stmt 0
 435              	#NO_APP
 436 0170 1B050500 		sext.w	a0,a0
 437              	.LVL27:
 438 0174 03348100 		ld	s0,8(sp)
 439              		.cfi_restore 8
 440              		.cfi_def_cfa 2, 16
 441 0178 13010101 		addi	sp,sp,16
 442              		.cfi_def_cfa_offset 0
 443 017c 67800000 		jr	ra
 444              		.cfi_endproc
 445              	.LFE26:
 447              		.align	2
 448              		.globl	_Z8sem_waitP3Sem
GAS LISTING /tmp/cc7QhSPM.s 			page 10


 450              	_Z8sem_waitP3Sem:
 451              	.LFB27:
  82:src/syscall_c.cpp **** int sem_wait(sem_t id){
 452              		.loc 1 82 23 is_stmt 1
 453              		.cfi_startproc
 454              	.LVL28:
 455 0180 130101FF 		addi	sp,sp,-16
 456              		.cfi_def_cfa_offset 16
 457 0184 23348100 		sd	s0,8(sp)
 458              		.cfi_offset 8, -8
 459 0188 13040101 		addi	s0,sp,16
 460              		.cfi_def_cfa 8, 0
  83:src/syscall_c.cpp ****     uint64 code=0x23;
 461              		.loc 1 83 5
 462              	.LVL29:
  84:src/syscall_c.cpp ****     __asm__ volatile("mv a1,%0": :"r"(id));
 463              		.loc 1 84 5
 464              		.loc 1 84 43 is_stmt 0
 465              	#APP
 466              	# 84 "src/syscall_c.cpp" 1
  85              	    __asm__ volatile("mv a0,%0": :"r"(code));
 467              		mv a1,a0
 468              	# 0 "" 2
 469              		.loc 1 85 5 is_stmt 1
 470              		.loc 1 85 45 is_stmt 0
 471              	#NO_APP
 472 0190 93073002 		li	a5,35
 473              	#APP
 474              	# 85 "src/syscall_c.cpp" 1
  86              	    __asm__ volatile("ecall");
 475              		mv a0,a5
 476              	# 0 "" 2
 477              		.loc 1 86 5 is_stmt 1
 478              		.loc 1 86 30 is_stmt 0
 479              	# 86 "src/syscall_c.cpp" 1
  87              	    uint64 ret;
 480              		ecall
 481              	# 0 "" 2
 482              		.loc 1 87 5 is_stmt 1
  88:src/syscall_c.cpp ****     __asm__ volatile("mv %0,a0":"=r"(ret));
 483              		.loc 1 88 5
 484              		.loc 1 88 43 is_stmt 0
 485              	# 88 "src/syscall_c.cpp" 1
  89              	    return (int)ret;
 486              		mv a0,a0
 487              	# 0 "" 2
 488              	.LVL30:
 489              		.loc 1 89 5 is_stmt 1
  90:src/syscall_c.cpp **** }
 490              		.loc 1 90 1 is_stmt 0
 491              	#NO_APP
 492 01a0 1B050500 		sext.w	a0,a0
 493              	.LVL31:
 494 01a4 03348100 		ld	s0,8(sp)
 495              		.cfi_restore 8
 496              		.cfi_def_cfa 2, 16
 497 01a8 13010101 		addi	sp,sp,16
GAS LISTING /tmp/cc7QhSPM.s 			page 11


 498              		.cfi_def_cfa_offset 0
 499 01ac 67800000 		jr	ra
 500              		.cfi_endproc
 501              	.LFE27:
 503              		.align	2
 504              		.globl	_Z10sem_signalP3Sem
 506              	_Z10sem_signalP3Sem:
 507              	.LFB28:
  91:src/syscall_c.cpp **** 
  92:src/syscall_c.cpp **** int sem_signal(sem_t id){
 508              		.loc 1 92 25 is_stmt 1
 509              		.cfi_startproc
 510              	.LVL32:
 511 01b0 130101FF 		addi	sp,sp,-16
 512              		.cfi_def_cfa_offset 16
 513 01b4 23348100 		sd	s0,8(sp)
 514              		.cfi_offset 8, -8
 515 01b8 13040101 		addi	s0,sp,16
 516              		.cfi_def_cfa 8, 0
  93:src/syscall_c.cpp ****     uint64 code=0x24;
 517              		.loc 1 93 5
 518              	.LVL33:
  94:src/syscall_c.cpp ****     __asm__ volatile("mv a1,%0": :"r"(id));
 519              		.loc 1 94 5
 520              		.loc 1 94 43 is_stmt 0
 521              	#APP
 522              	# 94 "src/syscall_c.cpp" 1
  95              	    __asm__ volatile("mv a0,%0": :"r"(code));
 523              		mv a1,a0
 524              	# 0 "" 2
 525              		.loc 1 95 5 is_stmt 1
 526              		.loc 1 95 45 is_stmt 0
 527              	#NO_APP
 528 01c0 93074002 		li	a5,36
 529              	#APP
 530              	# 95 "src/syscall_c.cpp" 1
  96              	    __asm__ volatile("ecall");
 531              		mv a0,a5
 532              	# 0 "" 2
 533              		.loc 1 96 5 is_stmt 1
 534              		.loc 1 96 30 is_stmt 0
 535              	# 96 "src/syscall_c.cpp" 1
  97              	    uint64 ret;
 536              		ecall
 537              	# 0 "" 2
 538              		.loc 1 97 5 is_stmt 1
  98:src/syscall_c.cpp ****     __asm__ volatile("mv %0,a0":"=r"(ret));
 539              		.loc 1 98 5
 540              		.loc 1 98 43 is_stmt 0
 541              	# 98 "src/syscall_c.cpp" 1
  99              	    return (int)ret;
 542              		mv a0,a0
 543              	# 0 "" 2
 544              	.LVL34:
 545              		.loc 1 99 5 is_stmt 1
 100:src/syscall_c.cpp **** }
 546              		.loc 1 100 1 is_stmt 0
GAS LISTING /tmp/cc7QhSPM.s 			page 12


 547              	#NO_APP
 548 01d0 1B050500 		sext.w	a0,a0
 549              	.LVL35:
 550 01d4 03348100 		ld	s0,8(sp)
 551              		.cfi_restore 8
 552              		.cfi_def_cfa 2, 16
 553 01d8 13010101 		addi	sp,sp,16
 554              		.cfi_def_cfa_offset 0
 555 01dc 67800000 		jr	ra
 556              		.cfi_endproc
 557              	.LFE28:
 559              		.align	2
 560              		.globl	_Z10time_sleepm
 562              	_Z10time_sleepm:
 563              	.LFB29:
 101:src/syscall_c.cpp **** 
 102:src/syscall_c.cpp **** int time_sleep(time_t t){
 564              		.loc 1 102 25 is_stmt 1
 565              		.cfi_startproc
 566              	.LVL36:
 567 01e0 130101FF 		addi	sp,sp,-16
 568              		.cfi_def_cfa_offset 16
 569 01e4 23348100 		sd	s0,8(sp)
 570              		.cfi_offset 8, -8
 571 01e8 13040101 		addi	s0,sp,16
 572              		.cfi_def_cfa 8, 0
 103:src/syscall_c.cpp ****     uint64 code=0x31;
 573              		.loc 1 103 5
 574              	.LVL37:
 104:src/syscall_c.cpp ****     __asm__ volatile("mv a1,%0": :"r"(t));
 575              		.loc 1 104 5
 576              		.loc 1 104 42 is_stmt 0
 577              	#APP
 578              	# 104 "src/syscall_c.cpp" 1
 105              	    __asm__ volatile("mv a0,%0": :"r"(code));
 579              		mv a1,a0
 580              	# 0 "" 2
 581              		.loc 1 105 5 is_stmt 1
 582              		.loc 1 105 45 is_stmt 0
 583              	#NO_APP
 584 01f0 93071003 		li	a5,49
 585              	#APP
 586              	# 105 "src/syscall_c.cpp" 1
 106              	    __asm__ volatile("ecall");
 587              		mv a0,a5
 588              	# 0 "" 2
 589              		.loc 1 106 5 is_stmt 1
 590              		.loc 1 106 30 is_stmt 0
 591              	# 106 "src/syscall_c.cpp" 1
 107              	    uint64 ret;
 592              		ecall
 593              	# 0 "" 2
 594              		.loc 1 107 5 is_stmt 1
 108:src/syscall_c.cpp ****     __asm__ volatile("mv %0,a0":"=r"(ret));
 595              		.loc 1 108 5
 596              		.loc 1 108 43 is_stmt 0
 597              	# 108 "src/syscall_c.cpp" 1
GAS LISTING /tmp/cc7QhSPM.s 			page 13


 109              	    return (int)ret;
 598              		mv a0,a0
 599              	# 0 "" 2
 600              	.LVL38:
 601              		.loc 1 109 5 is_stmt 1
 110:src/syscall_c.cpp **** }
 602              		.loc 1 110 1 is_stmt 0
 603              	#NO_APP
 604 0200 1B050500 		sext.w	a0,a0
 605              	.LVL39:
 606 0204 03348100 		ld	s0,8(sp)
 607              		.cfi_restore 8
 608              		.cfi_def_cfa 2, 16
 609 0208 13010101 		addi	sp,sp,16
 610              		.cfi_def_cfa_offset 0
 611 020c 67800000 		jr	ra
 612              		.cfi_endproc
 613              	.LFE29:
 615              		.align	2
 616              		.globl	_Z18changeToUserRegimev
 618              	_Z18changeToUserRegimev:
 619              	.LFB30:
 111:src/syscall_c.cpp **** 
 112:src/syscall_c.cpp **** void changeToUserRegime(){
 620              		.loc 1 112 26 is_stmt 1
 621              		.cfi_startproc
 622 0210 130101FF 		addi	sp,sp,-16
 623              		.cfi_def_cfa_offset 16
 624 0214 23348100 		sd	s0,8(sp)
 625              		.cfi_offset 8, -8
 626 0218 13040101 		addi	s0,sp,16
 627              		.cfi_def_cfa 8, 0
 113:src/syscall_c.cpp ****     uint64 code=0x50;
 628              		.loc 1 113 5
 629              	.LVL40:
 114:src/syscall_c.cpp ****     __asm__ volatile("mv a0,%0": :"r"(code));
 630              		.loc 1 114 5
 631              		.loc 1 114 45 is_stmt 0
 632 021c 93070005 		li	a5,80
 633              	#APP
 634              	# 114 "src/syscall_c.cpp" 1
 115              	    __asm__ volatile("ecall");
 635              		mv a0,a5
 636              	# 0 "" 2
 637              		.loc 1 115 5 is_stmt 1
 638              		.loc 1 115 30 is_stmt 0
 639              	# 115 "src/syscall_c.cpp" 1
 116              	    uint64 a=0x50;
 640              		ecall
 641              	# 0 "" 2
 642              		.loc 1 116 5 is_stmt 1
 643              	.LVL41:
 117:src/syscall_c.cpp ****     return;
 644              		.loc 1 117 5
 118:src/syscall_c.cpp **** }
 645              		.loc 1 118 1 is_stmt 0
 646              	#NO_APP
GAS LISTING /tmp/cc7QhSPM.s 			page 14


 647 0228 03348100 		ld	s0,8(sp)
 648              		.cfi_restore 8
 649              		.cfi_def_cfa 2, 16
 650 022c 13010101 		addi	sp,sp,16
 651              		.cfi_def_cfa_offset 0
 652 0230 67800000 		jr	ra
 653              		.cfi_endproc
 654              	.LFE30:
 656              		.align	2
 657              		.globl	_Z4getcv
 659              	_Z4getcv:
 660              	.LFB31:
 119:src/syscall_c.cpp **** 
 120:src/syscall_c.cpp **** char getc(){
 661              		.loc 1 120 12 is_stmt 1
 662              		.cfi_startproc
 663 0234 130101FF 		addi	sp,sp,-16
 664              		.cfi_def_cfa_offset 16
 665 0238 23348100 		sd	s0,8(sp)
 666              		.cfi_offset 8, -8
 667 023c 13040101 		addi	s0,sp,16
 668              		.cfi_def_cfa 8, 0
 121:src/syscall_c.cpp ****     uint64 code=0x41;
 669              		.loc 1 121 5
 670              	.LVL42:
 122:src/syscall_c.cpp ****     __asm__ volatile("mv a0,%0": :"r"(code));
 671              		.loc 1 122 5
 672              		.loc 1 122 45 is_stmt 0
 673 0240 93071004 		li	a5,65
 674              	#APP
 675              	# 122 "src/syscall_c.cpp" 1
 123              	    __asm__ volatile("ecall");
 676              		mv a0,a5
 677              	# 0 "" 2
 678              		.loc 1 123 5 is_stmt 1
 679              		.loc 1 123 30 is_stmt 0
 680              	# 123 "src/syscall_c.cpp" 1
 124              	    int ret=0;
 681              		ecall
 682              	# 0 "" 2
 683              		.loc 1 124 5 is_stmt 1
 684              	.LVL43:
 125:src/syscall_c.cpp ****     __asm__ volatile("mv %0, a0" : "=r"(ret));
 685              		.loc 1 125 5
 686              		.loc 1 125 46 is_stmt 0
 687              	# 125 "src/syscall_c.cpp" 1
 126              	    return (char)ret;
 688              		mv a0, a0
 689              	# 0 "" 2
 690              	.LVL44:
 691              		.loc 1 126 5 is_stmt 1
 127:src/syscall_c.cpp **** }
 692              		.loc 1 127 1 is_stmt 0
 693              	#NO_APP
 694 0250 1375F50F 		andi	a0,a0,0xff
 695              	.LVL45:
 696 0254 03348100 		ld	s0,8(sp)
GAS LISTING /tmp/cc7QhSPM.s 			page 15


 697              		.cfi_restore 8
 698              		.cfi_def_cfa 2, 16
 699 0258 13010101 		addi	sp,sp,16
 700              		.cfi_def_cfa_offset 0
 701 025c 67800000 		jr	ra
 702              		.cfi_endproc
 703              	.LFE31:
 705              		.align	2
 706              		.globl	_Z4putcc
 708              	_Z4putcc:
 709              	.LFB32:
 128:src/syscall_c.cpp **** void putc(char c){
 710              		.loc 1 128 18 is_stmt 1
 711              		.cfi_startproc
 712              	.LVL46:
 713 0260 130101FF 		addi	sp,sp,-16
 714              		.cfi_def_cfa_offset 16
 715 0264 23348100 		sd	s0,8(sp)
 716              		.cfi_offset 8, -8
 717 0268 13040101 		addi	s0,sp,16
 718              		.cfi_def_cfa 8, 0
 129:src/syscall_c.cpp ****     uint64 code=0x42;
 719              		.loc 1 129 5
 720              	.LVL47:
 130:src/syscall_c.cpp ****     __asm__ volatile("mv a1,%0": :"r"(c));
 721              		.loc 1 130 5
 722              		.loc 1 130 42 is_stmt 0
 723              	#APP
 724              	# 130 "src/syscall_c.cpp" 1
 131              	    __asm__ volatile("mv a0,%0": :"r"(code));
 725              		mv a1,a0
 726              	# 0 "" 2
 727              		.loc 1 131 5 is_stmt 1
 728              		.loc 1 131 45 is_stmt 0
 729              	#NO_APP
 730 0270 93072004 		li	a5,66
 731              	#APP
 732              	# 131 "src/syscall_c.cpp" 1
 132              	    __asm__ volatile("ecall");
 733              		mv a0,a5
 734              	# 0 "" 2
 735              		.loc 1 132 5 is_stmt 1
 736              		.loc 1 132 30 is_stmt 0
 737              	# 132 "src/syscall_c.cpp" 1
 133              	}
 738              		ecall
 739              	# 0 "" 2
 740              		.loc 1 133 1
 741              	#NO_APP
 742 027c 03348100 		ld	s0,8(sp)
 743              		.cfi_restore 8
 744              		.cfi_def_cfa 2, 16
 745 0280 13010101 		addi	sp,sp,16
 746              		.cfi_def_cfa_offset 0
 747 0284 67800000 		jr	ra
 748              		.cfi_endproc
 749              	.LFE32:
GAS LISTING /tmp/cc7QhSPM.s 			page 16


 751              	.Letext0:
 752              		.file 2 "src/../lib/hw.h"
 753              		.file 3 "src/../h/Sem.h"
 754              		.file 4 "src/../h/Con.h"
 755              		.file 5 "src/../h/TCB.h"
 756              		.file 6 "src/../h/syscall_c.hpp"
GAS LISTING /tmp/cc7QhSPM.s 			page 17


DEFINED SYMBOLS
                            *ABS*:0000000000000000 syscall_c.cpp
     /tmp/cc7QhSPM.s:9      .text:0000000000000000 _Z9mem_allocm
     /tmp/cc7QhSPM.s:13     .text:0000000000000000 .L0 
     /tmp/cc7QhSPM.s:15     .text:0000000000000000 .L0 
     /tmp/cc7QhSPM.s:16     .text:0000000000000004 .L0 
     /tmp/cc7QhSPM.s:18     .text:0000000000000008 .L0 
     /tmp/cc7QhSPM.s:20     .text:000000000000000c .L0 
     /tmp/cc7QhSPM.s:22     .text:000000000000000c .L0 
     /tmp/cc7QhSPM.s:23     .text:000000000000000c .L0 
     /tmp/cc7QhSPM.s:26     .text:0000000000000010 .L0 
     /tmp/cc7QhSPM.s:27     .text:0000000000000010 .L0 
     /tmp/cc7QhSPM.s:30     .text:0000000000000014 .L0 
     /tmp/cc7QhSPM.s:32     .text:0000000000000018 .L0 
     /tmp/cc7QhSPM.s:33     .text:0000000000000018 .L0 
     /tmp/cc7QhSPM.s:37     .text:000000000000001c .L0 
     /tmp/cc7QhSPM.s:38     .text:000000000000001c .L0 
   src/syscall_c.cpp:8      .text:000000000000001c .L0 
     /tmp/cc7QhSPM.s:44     .text:0000000000000020 .L0 
     /tmp/cc7QhSPM.s:46     .text:0000000000000020 .L0 
     /tmp/cc7QhSPM.s:53     .text:0000000000000028 .L0 
   src/syscall_c.cpp:10     .text:0000000000000028 .L0 
     /tmp/cc7QhSPM.s:58     .text:000000000000002c .L0 
     /tmp/cc7QhSPM.s:59     .text:000000000000002c .L0 
   src/syscall_c.cpp:12     .text:000000000000002c .L0 
     /tmp/cc7QhSPM.s:65     .text:0000000000000030 .L0 
     /tmp/cc7QhSPM.s:67     .text:0000000000000030 .L0 
     /tmp/cc7QhSPM.s:68     .text:0000000000000034 .L0 
     /tmp/cc7QhSPM.s:69     .text:0000000000000034 .L0 
     /tmp/cc7QhSPM.s:71     .text:0000000000000038 .L0 
     /tmp/cc7QhSPM.s:73     .text:000000000000003c .L0 
     /tmp/cc7QhSPM.s:79     .text:000000000000003c _Z8mem_freePv
     /tmp/cc7QhSPM.s:82     .text:000000000000003c .L0 
     /tmp/cc7QhSPM.s:84     .text:000000000000003c .L0 
     /tmp/cc7QhSPM.s:85     .text:0000000000000040 .L0 
     /tmp/cc7QhSPM.s:87     .text:0000000000000044 .L0 
     /tmp/cc7QhSPM.s:89     .text:0000000000000048 .L0 
     /tmp/cc7QhSPM.s:92     .text:0000000000000048 .L0 
     /tmp/cc7QhSPM.s:93     .text:0000000000000048 .L0 
   src/syscall_c.cpp:18     .text:0000000000000048 .L0 
     /tmp/cc7QhSPM.s:99     .text:000000000000004c .L0 
     /tmp/cc7QhSPM.s:101    .text:000000000000004c .L0 
     /tmp/cc7QhSPM.s:107    .text:0000000000000054 .L0 
   src/syscall_c.cpp:20     .text:0000000000000054 .L0 
     /tmp/cc7QhSPM.s:112    .text:0000000000000058 .L0 
     /tmp/cc7QhSPM.s:113    .text:0000000000000058 .L0 
   src/syscall_c.cpp:22     .text:0000000000000058 .L0 
     /tmp/cc7QhSPM.s:119    .text:000000000000005c .L0 
     /tmp/cc7QhSPM.s:121    .text:000000000000005c .L0 
     /tmp/cc7QhSPM.s:124    .text:0000000000000064 .L0 
     /tmp/cc7QhSPM.s:125    .text:0000000000000064 .L0 
     /tmp/cc7QhSPM.s:127    .text:0000000000000068 .L0 
     /tmp/cc7QhSPM.s:129    .text:000000000000006c .L0 
     /tmp/cc7QhSPM.s:135    .text:000000000000006c _Z13thread_createPP3TCBPFvPvES2_
     /tmp/cc7QhSPM.s:138    .text:000000000000006c .L0 
     /tmp/cc7QhSPM.s:140    .text:000000000000006c .L0 
     /tmp/cc7QhSPM.s:141    .text:0000000000000070 .L0 
GAS LISTING /tmp/cc7QhSPM.s 			page 18


     /tmp/cc7QhSPM.s:143    .text:0000000000000074 .L0 
     /tmp/cc7QhSPM.s:145    .text:0000000000000078 .L0 
     /tmp/cc7QhSPM.s:148    .text:0000000000000078 .L0 
     /tmp/cc7QhSPM.s:149    .text:0000000000000078 .L0 
   src/syscall_c.cpp:31     .text:0000000000000078 .L0 
     /tmp/cc7QhSPM.s:155    .text:000000000000007c .L0 
   src/syscall_c.cpp:32     .text:000000000000007c .L0 
     /tmp/cc7QhSPM.s:160    .text:0000000000000080 .L0 
   src/syscall_c.cpp:33     .text:0000000000000080 .L0 
     /tmp/cc7QhSPM.s:165    .text:0000000000000084 .L0 
     /tmp/cc7QhSPM.s:167    .text:0000000000000084 .L0 
     /tmp/cc7QhSPM.s:173    .text:000000000000008c .L0 
   src/syscall_c.cpp:35     .text:000000000000008c .L0 
     /tmp/cc7QhSPM.s:178    .text:0000000000000090 .L0 
     /tmp/cc7QhSPM.s:179    .text:0000000000000090 .L0 
   src/syscall_c.cpp:37     .text:0000000000000090 .L0 
     /tmp/cc7QhSPM.s:185    .text:0000000000000094 .L0 
     /tmp/cc7QhSPM.s:187    .text:0000000000000094 .L0 
     /tmp/cc7QhSPM.s:190    .text:000000000000009c .L0 
     /tmp/cc7QhSPM.s:191    .text:000000000000009c .L0 
     /tmp/cc7QhSPM.s:193    .text:00000000000000a0 .L0 
     /tmp/cc7QhSPM.s:195    .text:00000000000000a4 .L0 
     /tmp/cc7QhSPM.s:201    .text:00000000000000a4 _Z11thread_exitv
     /tmp/cc7QhSPM.s:204    .text:00000000000000a4 .L0 
     /tmp/cc7QhSPM.s:205    .text:00000000000000a4 .L0 
     /tmp/cc7QhSPM.s:206    .text:00000000000000a8 .L0 
     /tmp/cc7QhSPM.s:208    .text:00000000000000ac .L0 
     /tmp/cc7QhSPM.s:210    .text:00000000000000b0 .L0 
     /tmp/cc7QhSPM.s:213    .text:00000000000000b0 .L0 
     /tmp/cc7QhSPM.s:214    .text:00000000000000b0 .L0 
     /tmp/cc7QhSPM.s:215    .text:00000000000000b0 .L0 
     /tmp/cc7QhSPM.s:221    .text:00000000000000b8 .L0 
   src/syscall_c.cpp:44     .text:00000000000000b8 .L0 
     /tmp/cc7QhSPM.s:226    .text:00000000000000bc .L0 
     /tmp/cc7QhSPM.s:227    .text:00000000000000bc .L0 
   src/syscall_c.cpp:46     .text:00000000000000bc .L0 
     /tmp/cc7QhSPM.s:233    .text:00000000000000c0 .L0 
     /tmp/cc7QhSPM.s:235    .text:00000000000000c0 .L0 
     /tmp/cc7QhSPM.s:238    .text:00000000000000c8 .L0 
     /tmp/cc7QhSPM.s:239    .text:00000000000000c8 .L0 
     /tmp/cc7QhSPM.s:241    .text:00000000000000cc .L0 
     /tmp/cc7QhSPM.s:243    .text:00000000000000d0 .L0 
     /tmp/cc7QhSPM.s:249    .text:00000000000000d0 _Z15thread_dispatchv
     /tmp/cc7QhSPM.s:252    .text:00000000000000d0 .L0 
     /tmp/cc7QhSPM.s:253    .text:00000000000000d0 .L0 
     /tmp/cc7QhSPM.s:254    .text:00000000000000d4 .L0 
     /tmp/cc7QhSPM.s:256    .text:00000000000000d8 .L0 
     /tmp/cc7QhSPM.s:258    .text:00000000000000dc .L0 
     /tmp/cc7QhSPM.s:261    .text:00000000000000dc .L0 
     /tmp/cc7QhSPM.s:262    .text:00000000000000dc .L0 
     /tmp/cc7QhSPM.s:263    .text:00000000000000dc .L0 
     /tmp/cc7QhSPM.s:269    .text:00000000000000e4 .L0 
   src/syscall_c.cpp:53     .text:00000000000000e4 .L0 
     /tmp/cc7QhSPM.s:275    .text:00000000000000e8 .L0 
     /tmp/cc7QhSPM.s:276    .text:00000000000000ec .L0 
     /tmp/cc7QhSPM.s:277    .text:00000000000000ec .L0 
     /tmp/cc7QhSPM.s:279    .text:00000000000000f0 .L0 
GAS LISTING /tmp/cc7QhSPM.s 			page 19


     /tmp/cc7QhSPM.s:281    .text:00000000000000f4 .L0 
     /tmp/cc7QhSPM.s:287    .text:00000000000000f4 _Z11thread_joinP3TCB
     /tmp/cc7QhSPM.s:290    .text:00000000000000f4 .L0 
     /tmp/cc7QhSPM.s:292    .text:00000000000000f4 .L0 
     /tmp/cc7QhSPM.s:293    .text:00000000000000f8 .L0 
     /tmp/cc7QhSPM.s:295    .text:00000000000000fc .L0 
     /tmp/cc7QhSPM.s:297    .text:0000000000000100 .L0 
     /tmp/cc7QhSPM.s:300    .text:0000000000000100 .L0 
     /tmp/cc7QhSPM.s:301    .text:0000000000000100 .L0 
   src/syscall_c.cpp:58     .text:0000000000000100 .L0 
     /tmp/cc7QhSPM.s:307    .text:0000000000000104 .L0 
     /tmp/cc7QhSPM.s:309    .text:0000000000000104 .L0 
     /tmp/cc7QhSPM.s:315    .text:000000000000010c .L0 
   src/syscall_c.cpp:60     .text:000000000000010c .L0 
     /tmp/cc7QhSPM.s:321    .text:0000000000000110 .L0 
     /tmp/cc7QhSPM.s:322    .text:0000000000000114 .L0 
     /tmp/cc7QhSPM.s:323    .text:0000000000000114 .L0 
     /tmp/cc7QhSPM.s:325    .text:0000000000000118 .L0 
     /tmp/cc7QhSPM.s:327    .text:000000000000011c .L0 
     /tmp/cc7QhSPM.s:333    .text:000000000000011c _Z8sem_openPP3Semj
     /tmp/cc7QhSPM.s:336    .text:000000000000011c .L0 
     /tmp/cc7QhSPM.s:338    .text:000000000000011c .L0 
     /tmp/cc7QhSPM.s:339    .text:0000000000000120 .L0 
     /tmp/cc7QhSPM.s:341    .text:0000000000000124 .L0 
     /tmp/cc7QhSPM.s:343    .text:0000000000000128 .L0 
     /tmp/cc7QhSPM.s:346    .text:0000000000000128 .L0 
     /tmp/cc7QhSPM.s:347    .text:0000000000000128 .L0 
   src/syscall_c.cpp:65     .text:0000000000000128 .L0 
     /tmp/cc7QhSPM.s:353    .text:000000000000012c .L0 
   src/syscall_c.cpp:66     .text:000000000000012c .L0 
     /tmp/cc7QhSPM.s:358    .text:0000000000000130 .L0 
     /tmp/cc7QhSPM.s:360    .text:0000000000000130 .L0 
     /tmp/cc7QhSPM.s:366    .text:0000000000000138 .L0 
   src/syscall_c.cpp:68     .text:0000000000000138 .L0 
     /tmp/cc7QhSPM.s:371    .text:000000000000013c .L0 
     /tmp/cc7QhSPM.s:372    .text:000000000000013c .L0 
   src/syscall_c.cpp:70     .text:000000000000013c .L0 
     /tmp/cc7QhSPM.s:378    .text:0000000000000140 .L0 
     /tmp/cc7QhSPM.s:380    .text:0000000000000140 .L0 
     /tmp/cc7QhSPM.s:383    .text:0000000000000148 .L0 
     /tmp/cc7QhSPM.s:384    .text:0000000000000148 .L0 
     /tmp/cc7QhSPM.s:386    .text:000000000000014c .L0 
     /tmp/cc7QhSPM.s:388    .text:0000000000000150 .L0 
     /tmp/cc7QhSPM.s:394    .text:0000000000000150 _Z9sem_closeP3Sem
     /tmp/cc7QhSPM.s:397    .text:0000000000000150 .L0 
     /tmp/cc7QhSPM.s:399    .text:0000000000000150 .L0 
     /tmp/cc7QhSPM.s:400    .text:0000000000000154 .L0 
     /tmp/cc7QhSPM.s:402    .text:0000000000000158 .L0 
     /tmp/cc7QhSPM.s:404    .text:000000000000015c .L0 
     /tmp/cc7QhSPM.s:407    .text:000000000000015c .L0 
     /tmp/cc7QhSPM.s:408    .text:000000000000015c .L0 
   src/syscall_c.cpp:75     .text:000000000000015c .L0 
     /tmp/cc7QhSPM.s:414    .text:0000000000000160 .L0 
     /tmp/cc7QhSPM.s:416    .text:0000000000000160 .L0 
     /tmp/cc7QhSPM.s:422    .text:0000000000000168 .L0 
   src/syscall_c.cpp:77     .text:0000000000000168 .L0 
     /tmp/cc7QhSPM.s:427    .text:000000000000016c .L0 
GAS LISTING /tmp/cc7QhSPM.s 			page 20


     /tmp/cc7QhSPM.s:428    .text:000000000000016c .L0 
   src/syscall_c.cpp:79     .text:000000000000016c .L0 
     /tmp/cc7QhSPM.s:434    .text:0000000000000170 .L0 
     /tmp/cc7QhSPM.s:436    .text:0000000000000170 .L0 
     /tmp/cc7QhSPM.s:439    .text:0000000000000178 .L0 
     /tmp/cc7QhSPM.s:440    .text:0000000000000178 .L0 
     /tmp/cc7QhSPM.s:442    .text:000000000000017c .L0 
     /tmp/cc7QhSPM.s:444    .text:0000000000000180 .L0 
     /tmp/cc7QhSPM.s:450    .text:0000000000000180 _Z8sem_waitP3Sem
     /tmp/cc7QhSPM.s:453    .text:0000000000000180 .L0 
     /tmp/cc7QhSPM.s:455    .text:0000000000000180 .L0 
     /tmp/cc7QhSPM.s:456    .text:0000000000000184 .L0 
     /tmp/cc7QhSPM.s:458    .text:0000000000000188 .L0 
     /tmp/cc7QhSPM.s:460    .text:000000000000018c .L0 
     /tmp/cc7QhSPM.s:463    .text:000000000000018c .L0 
     /tmp/cc7QhSPM.s:464    .text:000000000000018c .L0 
   src/syscall_c.cpp:84     .text:000000000000018c .L0 
     /tmp/cc7QhSPM.s:470    .text:0000000000000190 .L0 
     /tmp/cc7QhSPM.s:472    .text:0000000000000190 .L0 
     /tmp/cc7QhSPM.s:478    .text:0000000000000198 .L0 
   src/syscall_c.cpp:86     .text:0000000000000198 .L0 
     /tmp/cc7QhSPM.s:483    .text:000000000000019c .L0 
     /tmp/cc7QhSPM.s:484    .text:000000000000019c .L0 
   src/syscall_c.cpp:88     .text:000000000000019c .L0 
     /tmp/cc7QhSPM.s:490    .text:00000000000001a0 .L0 
     /tmp/cc7QhSPM.s:492    .text:00000000000001a0 .L0 
     /tmp/cc7QhSPM.s:495    .text:00000000000001a8 .L0 
     /tmp/cc7QhSPM.s:496    .text:00000000000001a8 .L0 
     /tmp/cc7QhSPM.s:498    .text:00000000000001ac .L0 
     /tmp/cc7QhSPM.s:500    .text:00000000000001b0 .L0 
     /tmp/cc7QhSPM.s:506    .text:00000000000001b0 _Z10sem_signalP3Sem
     /tmp/cc7QhSPM.s:509    .text:00000000000001b0 .L0 
     /tmp/cc7QhSPM.s:511    .text:00000000000001b0 .L0 
     /tmp/cc7QhSPM.s:512    .text:00000000000001b4 .L0 
     /tmp/cc7QhSPM.s:514    .text:00000000000001b8 .L0 
     /tmp/cc7QhSPM.s:516    .text:00000000000001bc .L0 
     /tmp/cc7QhSPM.s:519    .text:00000000000001bc .L0 
     /tmp/cc7QhSPM.s:520    .text:00000000000001bc .L0 
   src/syscall_c.cpp:94     .text:00000000000001bc .L0 
     /tmp/cc7QhSPM.s:526    .text:00000000000001c0 .L0 
     /tmp/cc7QhSPM.s:528    .text:00000000000001c0 .L0 
     /tmp/cc7QhSPM.s:534    .text:00000000000001c8 .L0 
   src/syscall_c.cpp:96     .text:00000000000001c8 .L0 
     /tmp/cc7QhSPM.s:539    .text:00000000000001cc .L0 
     /tmp/cc7QhSPM.s:540    .text:00000000000001cc .L0 
   src/syscall_c.cpp:98     .text:00000000000001cc .L0 
     /tmp/cc7QhSPM.s:546    .text:00000000000001d0 .L0 
     /tmp/cc7QhSPM.s:548    .text:00000000000001d0 .L0 
     /tmp/cc7QhSPM.s:551    .text:00000000000001d8 .L0 
     /tmp/cc7QhSPM.s:552    .text:00000000000001d8 .L0 
     /tmp/cc7QhSPM.s:554    .text:00000000000001dc .L0 
     /tmp/cc7QhSPM.s:556    .text:00000000000001e0 .L0 
     /tmp/cc7QhSPM.s:562    .text:00000000000001e0 _Z10time_sleepm
     /tmp/cc7QhSPM.s:565    .text:00000000000001e0 .L0 
     /tmp/cc7QhSPM.s:567    .text:00000000000001e0 .L0 
     /tmp/cc7QhSPM.s:568    .text:00000000000001e4 .L0 
     /tmp/cc7QhSPM.s:570    .text:00000000000001e8 .L0 
GAS LISTING /tmp/cc7QhSPM.s 			page 21


     /tmp/cc7QhSPM.s:572    .text:00000000000001ec .L0 
     /tmp/cc7QhSPM.s:575    .text:00000000000001ec .L0 
     /tmp/cc7QhSPM.s:576    .text:00000000000001ec .L0 
   src/syscall_c.cpp:104    .text:00000000000001ec .L0 
     /tmp/cc7QhSPM.s:582    .text:00000000000001f0 .L0 
     /tmp/cc7QhSPM.s:584    .text:00000000000001f0 .L0 
     /tmp/cc7QhSPM.s:590    .text:00000000000001f8 .L0 
   src/syscall_c.cpp:106    .text:00000000000001f8 .L0 
     /tmp/cc7QhSPM.s:595    .text:00000000000001fc .L0 
     /tmp/cc7QhSPM.s:596    .text:00000000000001fc .L0 
   src/syscall_c.cpp:108    .text:00000000000001fc .L0 
     /tmp/cc7QhSPM.s:602    .text:0000000000000200 .L0 
     /tmp/cc7QhSPM.s:604    .text:0000000000000200 .L0 
     /tmp/cc7QhSPM.s:607    .text:0000000000000208 .L0 
     /tmp/cc7QhSPM.s:608    .text:0000000000000208 .L0 
     /tmp/cc7QhSPM.s:610    .text:000000000000020c .L0 
     /tmp/cc7QhSPM.s:612    .text:0000000000000210 .L0 
     /tmp/cc7QhSPM.s:618    .text:0000000000000210 _Z18changeToUserRegimev
     /tmp/cc7QhSPM.s:621    .text:0000000000000210 .L0 
     /tmp/cc7QhSPM.s:622    .text:0000000000000210 .L0 
     /tmp/cc7QhSPM.s:623    .text:0000000000000214 .L0 
     /tmp/cc7QhSPM.s:625    .text:0000000000000218 .L0 
     /tmp/cc7QhSPM.s:627    .text:000000000000021c .L0 
     /tmp/cc7QhSPM.s:630    .text:000000000000021c .L0 
     /tmp/cc7QhSPM.s:631    .text:000000000000021c .L0 
     /tmp/cc7QhSPM.s:632    .text:000000000000021c .L0 
     /tmp/cc7QhSPM.s:638    .text:0000000000000224 .L0 
   src/syscall_c.cpp:115    .text:0000000000000224 .L0 
     /tmp/cc7QhSPM.s:644    .text:0000000000000228 .L0 
     /tmp/cc7QhSPM.s:645    .text:0000000000000228 .L0 
     /tmp/cc7QhSPM.s:647    .text:0000000000000228 .L0 
     /tmp/cc7QhSPM.s:648    .text:000000000000022c .L0 
     /tmp/cc7QhSPM.s:649    .text:000000000000022c .L0 
     /tmp/cc7QhSPM.s:651    .text:0000000000000230 .L0 
     /tmp/cc7QhSPM.s:653    .text:0000000000000234 .L0 
     /tmp/cc7QhSPM.s:659    .text:0000000000000234 _Z4getcv
     /tmp/cc7QhSPM.s:662    .text:0000000000000234 .L0 
     /tmp/cc7QhSPM.s:663    .text:0000000000000234 .L0 
     /tmp/cc7QhSPM.s:664    .text:0000000000000238 .L0 
     /tmp/cc7QhSPM.s:666    .text:000000000000023c .L0 
     /tmp/cc7QhSPM.s:668    .text:0000000000000240 .L0 
     /tmp/cc7QhSPM.s:671    .text:0000000000000240 .L0 
     /tmp/cc7QhSPM.s:672    .text:0000000000000240 .L0 
     /tmp/cc7QhSPM.s:673    .text:0000000000000240 .L0 
     /tmp/cc7QhSPM.s:679    .text:0000000000000248 .L0 
   src/syscall_c.cpp:123    .text:0000000000000248 .L0 
     /tmp/cc7QhSPM.s:685    .text:000000000000024c .L0 
     /tmp/cc7QhSPM.s:686    .text:000000000000024c .L0 
   src/syscall_c.cpp:125    .text:000000000000024c .L0 
     /tmp/cc7QhSPM.s:692    .text:0000000000000250 .L0 
     /tmp/cc7QhSPM.s:694    .text:0000000000000250 .L0 
     /tmp/cc7QhSPM.s:697    .text:0000000000000258 .L0 
     /tmp/cc7QhSPM.s:698    .text:0000000000000258 .L0 
     /tmp/cc7QhSPM.s:700    .text:000000000000025c .L0 
     /tmp/cc7QhSPM.s:702    .text:0000000000000260 .L0 
     /tmp/cc7QhSPM.s:708    .text:0000000000000260 _Z4putcc
     /tmp/cc7QhSPM.s:711    .text:0000000000000260 .L0 
GAS LISTING /tmp/cc7QhSPM.s 			page 22


     /tmp/cc7QhSPM.s:713    .text:0000000000000260 .L0 
     /tmp/cc7QhSPM.s:714    .text:0000000000000264 .L0 
     /tmp/cc7QhSPM.s:716    .text:0000000000000268 .L0 
     /tmp/cc7QhSPM.s:718    .text:000000000000026c .L0 
     /tmp/cc7QhSPM.s:721    .text:000000000000026c .L0 
     /tmp/cc7QhSPM.s:722    .text:000000000000026c .L0 
   src/syscall_c.cpp:130    .text:000000000000026c .L0 
     /tmp/cc7QhSPM.s:728    .text:0000000000000270 .L0 
     /tmp/cc7QhSPM.s:730    .text:0000000000000270 .L0 
     /tmp/cc7QhSPM.s:736    .text:0000000000000278 .L0 
   src/syscall_c.cpp:132    .text:0000000000000278 .L0 
     /tmp/cc7QhSPM.s:742    .text:000000000000027c .L0 
     /tmp/cc7QhSPM.s:743    .text:0000000000000280 .L0 
     /tmp/cc7QhSPM.s:744    .text:0000000000000280 .L0 
     /tmp/cc7QhSPM.s:746    .text:0000000000000284 .L0 
     /tmp/cc7QhSPM.s:748    .text:0000000000000288 .L0 
     /tmp/cc7QhSPM.s:757    .text:0000000000000288 .L0 
     /tmp/cc7QhSPM.s:35     .text:000000000000001c .L2
     /tmp/cc7QhSPM.s:1928   .debug_abbrev:0000000000000000 .Ldebug_abbrev0
     /tmp/cc7QhSPM.s:3103   .debug_str:0000000000000611 .LASF122
     /tmp/cc7QhSPM.s:3021   .debug_str:00000000000003b3 .LASF123
     /tmp/cc7QhSPM.s:3113   .debug_str:0000000000000725 .LASF124
     /tmp/cc7QhSPM.s:5      .text:0000000000000000 .Ltext0
     /tmp/cc7QhSPM.s:751    .text:0000000000000288 .Letext0
     /tmp/cc7QhSPM.s:2891   .debug_line:0000000000000000 .Ldebug_line0
     /tmp/cc7QhSPM.s:2981   .debug_str:00000000000002a1 .LASF0
     /tmp/cc7QhSPM.s:2999   .debug_str:0000000000000338 .LASF1
     /tmp/cc7QhSPM.s:3057   .debug_str:00000000000004cc .LASF2
     /tmp/cc7QhSPM.s:3061   .debug_str:00000000000004e7 .LASF4
     /tmp/cc7QhSPM.s:2989   .debug_str:00000000000002d7 .LASF3
     /tmp/cc7QhSPM.s:2901   .debug_str:0000000000000048 .LASF5
     /tmp/cc7QhSPM.s:3043   .debug_str:0000000000000479 .LASF6
     /tmp/cc7QhSPM.s:3035   .debug_str:0000000000000423 .LASF7
     /tmp/cc7QhSPM.s:2993   .debug_str:0000000000000312 .LASF8
     /tmp/cc7QhSPM.s:2953   .debug_str:00000000000001c3 .LASF9
     /tmp/cc7QhSPM.s:2963   .debug_str:000000000000021d .LASF10
     /tmp/cc7QhSPM.s:2927   .debug_str:0000000000000110 .LASF11
     /tmp/cc7QhSPM.s:2951   .debug_str:00000000000001b4 .LASF12
     /tmp/cc7QhSPM.s:2935   .debug_str:000000000000013b .LASF13
     /tmp/cc7QhSPM.s:2925   .debug_str:0000000000000100 .LASF14
     /tmp/cc7QhSPM.s:3085   .debug_str:00000000000005b6 .LASF15
     /tmp/cc7QhSPM.s:2943   .debug_str:0000000000000173 .LASF16
     /tmp/cc7QhSPM.s:3073   .debug_str:0000000000000541 .LASF17
     /tmp/cc7QhSPM.s:3011   .debug_str:0000000000000380 .LASF18
     /tmp/cc7QhSPM.s:3095   .debug_str:00000000000005e4 .LASF19
     /tmp/cc7QhSPM.s:3123   .debug_str:000000000000077e .LASF42
     /tmp/cc7QhSPM.s:3055   .debug_str:00000000000004c5 .LASF20
     /tmp/cc7QhSPM.s:2929   .debug_str:000000000000011f .LASF21
     /tmp/cc7QhSPM.s:2975   .debug_str:000000000000028c .LASF22
     /tmp/cc7QhSPM.s:3135   .debug_str:00000000000007d3 .LASF23
     /tmp/cc7QhSPM.s:2893   .debug_str:0000000000000000 .LASF24
     /tmp/cc7QhSPM.s:2921   .debug_str:00000000000000ef .LASF58
     /tmp/cc7QhSPM.s:3143   .debug_str:0000000000000801 .LASF25
     /tmp/cc7QhSPM.s:2909   .debug_str:0000000000000088 .LASF27
     /tmp/cc7QhSPM.s:2979   .debug_str:000000000000029b .LASF26
     /tmp/cc7QhSPM.s:2947   .debug_str:000000000000018e .LASF28
     /tmp/cc7QhSPM.s:2897   .debug_str:0000000000000018 .LASF29
GAS LISTING /tmp/cc7QhSPM.s 			page 23


     /tmp/cc7QhSPM.s:3105   .debug_str:00000000000006d5 .LASF30
     /tmp/cc7QhSPM.s:3005   .debug_str:0000000000000367 .LASF31
     /tmp/cc7QhSPM.s:2895   .debug_str:000000000000000c .LASF32
     /tmp/cc7QhSPM.s:3139   .debug_str:00000000000007e1 .LASF33
     /tmp/cc7QhSPM.s:3127   .debug_str:000000000000079c .LASF35
     /tmp/cc7QhSPM.s:2933   .debug_str:0000000000000130 .LASF34
     /tmp/cc7QhSPM.s:3063   .debug_str:00000000000004ee .LASF36
     /tmp/cc7QhSPM.s:2971   .debug_str:000000000000025e .LASF37
     /tmp/cc7QhSPM.s:3141   .debug_str:00000000000007eb .LASF38
     /tmp/cc7QhSPM.s:3077   .debug_str:0000000000000570 .LASF39
     /tmp/cc7QhSPM.s:2959   .debug_str:00000000000001fa .LASF40
     /tmp/cc7QhSPM.s:3091   .debug_str:00000000000005d3 .LASF41
     /tmp/cc7QhSPM.s:2931   .debug_str:0000000000000124 .LASF43
     /tmp/cc7QhSPM.s:2917   .debug_str:00000000000000e5 .LASF44
     /tmp/cc7QhSPM.s:2913   .debug_str:00000000000000ba .LASF56
     /tmp/cc7QhSPM.s:3089   .debug_str:00000000000005cb .LASF45
     /tmp/cc7QhSPM.s:3117   .debug_str:0000000000000752 .LASF46
     /tmp/cc7QhSPM.s:3109   .debug_str:0000000000000703 .LASF47
     /tmp/cc7QhSPM.s:3115   .debug_str:0000000000000748 .LASF48
     /tmp/cc7QhSPM.s:3147   .debug_str:000000000000081a .LASF49
     /tmp/cc7QhSPM.s:3071   .debug_str:0000000000000538 .LASF50
     /tmp/cc7QhSPM.s:3033   .debug_str:000000000000041b .LASF51
     /tmp/cc7QhSPM.s:3067   .debug_str:000000000000051b .LASF52
     /tmp/cc7QhSPM.s:2903   .debug_str:000000000000004f .LASF53
     /tmp/cc7QhSPM.s:2911   .debug_str:000000000000009e .LASF54
     /tmp/cc7QhSPM.s:3031   .debug_str:000000000000040c .LASF55
     /tmp/cc7QhSPM.s:3027   .debug_str:00000000000003e4 .LASF57
     /tmp/cc7QhSPM.s:3045   .debug_str:0000000000000480 .LASF59
     /tmp/cc7QhSPM.s:2939   .debug_str:0000000000000158 .LASF60
     /tmp/cc7QhSPM.s:2899   .debug_str:0000000000000020 .LASF61
     /tmp/cc7QhSPM.s:3007   .debug_str:000000000000036c .LASF125
     /tmp/cc7QhSPM.s:2907   .debug_str:0000000000000076 .LASF126
     /tmp/cc7QhSPM.s:3059   .debug_str:00000000000004da .LASF62
     /tmp/cc7QhSPM.s:3101   .debug_str:0000000000000609 .LASF63
     /tmp/cc7QhSPM.s:3093   .debug_str:00000000000005d9 .LASF64
     /tmp/cc7QhSPM.s:2949   .debug_str:000000000000019e .LASF65
     /tmp/cc7QhSPM.s:3001   .debug_str:000000000000034b .LASF66
     /tmp/cc7QhSPM.s:2991   .debug_str:00000000000002e9 .LASF67
     /tmp/cc7QhSPM.s:3099   .debug_str:00000000000005fc .LASF127
     /tmp/cc7QhSPM.s:3111   .debug_str:000000000000070d .LASF128
     /tmp/cc7QhSPM.s:3069   .debug_str:0000000000000527 .LASF81
     /tmp/cc7QhSPM.s:3107   .debug_str:00000000000006e7 .LASF83
     /tmp/cc7QhSPM.s:3119   .debug_str:000000000000075a .LASF68
     /tmp/cc7QhSPM.s:2965   .debug_str:000000000000022b .LASF69
     /tmp/cc7QhSPM.s:3009   .debug_str:0000000000000374 .LASF70
     /tmp/cc7QhSPM.s:3121   .debug_str:0000000000000767 .LASF71
     /tmp/cc7QhSPM.s:2941   .debug_str:0000000000000166 .LASF72
     /tmp/cc7QhSPM.s:3037   .debug_str:0000000000000436 .LASF73
     /tmp/cc7QhSPM.s:3003   .debug_str:000000000000035a .LASF77
     /tmp/cc7QhSPM.s:3125   .debug_str:0000000000000783 .LASF79
     /tmp/cc7QhSPM.s:2961   .debug_str:0000000000000213 .LASF74
     /tmp/cc7QhSPM.s:2937   .debug_str:000000000000014b .LASF75
     /tmp/cc7QhSPM.s:2905   .debug_str:000000000000005e .LASF76
     /tmp/cc7QhSPM.s:3129   .debug_str:00000000000007b4 .LASF78
     /tmp/cc7QhSPM.s:3039   .debug_str:0000000000000451 .LASF80
     /tmp/cc7QhSPM.s:3075   .debug_str:0000000000000557 .LASF82
     /tmp/cc7QhSPM.s:2973   .debug_str:0000000000000268 .LASF84
GAS LISTING /tmp/cc7QhSPM.s 			page 24


     /tmp/cc7QhSPM.s:3133   .debug_str:00000000000007ca .LASF85
     /tmp/cc7QhSPM.s:2955   .debug_str:00000000000001d3 .LASF86
     /tmp/cc7QhSPM.s:3019   .debug_str:00000000000003ae .LASF87
     /tmp/cc7QhSPM.s:3087   .debug_str:00000000000005c2 .LASF88
     /tmp/cc7QhSPM.s:709    .text:0000000000000260 .LFB32
     /tmp/cc7QhSPM.s:749    .text:0000000000000288 .LFE32
     /tmp/cc7QhSPM.s:2945   .debug_str:0000000000000189 .LASF89
     /tmp/cc7QhSPM.s:2985   .debug_str:00000000000002c1 .LASF92
     /tmp/cc7QhSPM.s:3131   .debug_str:00000000000007c1 .LASF94
     /tmp/cc7QhSPM.s:660    .text:0000000000000234 .LFB31
     /tmp/cc7QhSPM.s:703    .text:0000000000000260 .LFE31
     /tmp/cc7QhSPM.s:2691   .debug_loc:0000000000000000 .LLST17
     /tmp/cc7QhSPM.s:2983   .debug_str:00000000000002ae .LASF90
     /tmp/cc7QhSPM.s:3079   .debug_str:000000000000057c .LASF91
     /tmp/cc7QhSPM.s:619    .text:0000000000000210 .LFB30
     /tmp/cc7QhSPM.s:654    .text:0000000000000234 .LFE30
     /tmp/cc7QhSPM.s:3053   .debug_str:00000000000004ba .LASF93
     /tmp/cc7QhSPM.s:3041   .debug_str:0000000000000469 .LASF95
     /tmp/cc7QhSPM.s:563    .text:00000000000001e0 .LFB29
     /tmp/cc7QhSPM.s:613    .text:0000000000000210 .LFE29
     /tmp/cc7QhSPM.s:2703   .debug_loc:0000000000000037 .LLST15
     /tmp/cc7QhSPM.s:2717   .debug_loc:0000000000000070 .LLST16
     /tmp/cc7QhSPM.s:2969   .debug_str:0000000000000253 .LASF96
     /tmp/cc7QhSPM.s:3081   .debug_str:0000000000000594 .LASF97
     /tmp/cc7QhSPM.s:507    .text:00000000000001b0 .LFB28
     /tmp/cc7QhSPM.s:557    .text:00000000000001e0 .LFE28
     /tmp/cc7QhSPM.s:2724   .debug_loc:0000000000000093 .LLST13
     /tmp/cc7QhSPM.s:2738   .debug_loc:00000000000000cc .LLST14
     /tmp/cc7QhSPM.s:3149   .debug_str:0000000000000820 .LASF98
     /tmp/cc7QhSPM.s:3015   .debug_str:0000000000000391 .LASF99
     /tmp/cc7QhSPM.s:451    .text:0000000000000180 .LFB27
     /tmp/cc7QhSPM.s:501    .text:00000000000001b0 .LFE27
     /tmp/cc7QhSPM.s:2745   .debug_loc:00000000000000ef .LLST11
     /tmp/cc7QhSPM.s:2759   .debug_loc:0000000000000128 .LLST12
     /tmp/cc7QhSPM.s:3047   .debug_str:0000000000000497 .LASF100
     /tmp/cc7QhSPM.s:2915   .debug_str:00000000000000d3 .LASF101
     /tmp/cc7QhSPM.s:395    .text:0000000000000150 .LFB26
     /tmp/cc7QhSPM.s:445    .text:0000000000000180 .LFE26
     /tmp/cc7QhSPM.s:3137   .debug_str:00000000000007da .LASF102
     /tmp/cc7QhSPM.s:2766   .debug_loc:000000000000014b .LLST9
     /tmp/cc7QhSPM.s:2780   .debug_loc:0000000000000184 .LLST10
     /tmp/cc7QhSPM.s:3051   .debug_str:00000000000004b1 .LASF103
     /tmp/cc7QhSPM.s:3097   .debug_str:00000000000005e9 .LASF104
     /tmp/cc7QhSPM.s:334    .text:000000000000011c .LFB25
     /tmp/cc7QhSPM.s:389    .text:0000000000000150 .LFE25
     /tmp/cc7QhSPM.s:2787   .debug_loc:00000000000001a7 .LLST7
     /tmp/cc7QhSPM.s:2919   .debug_str:00000000000000ea .LASF105
     /tmp/cc7QhSPM.s:2801   .debug_loc:00000000000001e0 .LLST8
     /tmp/cc7QhSPM.s:3029   .debug_str:0000000000000400 .LASF106
     /tmp/cc7QhSPM.s:3065   .debug_str:0000000000000506 .LASF107
     /tmp/cc7QhSPM.s:288    .text:00000000000000f4 .LFB24
     /tmp/cc7QhSPM.s:328    .text:000000000000011c .LFE24
     /tmp/cc7QhSPM.s:3049   .debug_str:00000000000004a1 .LASF108
     /tmp/cc7QhSPM.s:3025   .debug_str:00000000000003cf .LASF109
     /tmp/cc7QhSPM.s:250    .text:00000000000000d0 .LFB23
     /tmp/cc7QhSPM.s:282    .text:00000000000000f4 .LFE23
     /tmp/cc7QhSPM.s:3017   .debug_str:00000000000003a2 .LASF110
GAS LISTING /tmp/cc7QhSPM.s 			page 25


     /tmp/cc7QhSPM.s:2987   .debug_str:00000000000002c6 .LASF111
     /tmp/cc7QhSPM.s:202    .text:00000000000000a4 .LFB22
     /tmp/cc7QhSPM.s:244    .text:00000000000000d0 .LFE22
     /tmp/cc7QhSPM.s:2808   .debug_loc:0000000000000203 .LLST6
     /tmp/cc7QhSPM.s:3083   .debug_str:00000000000005a8 .LASF112
     /tmp/cc7QhSPM.s:2957   .debug_str:00000000000001d9 .LASF113
     /tmp/cc7QhSPM.s:136    .text:000000000000006c .LFB21
     /tmp/cc7QhSPM.s:196    .text:00000000000000a4 .LFE21
     /tmp/cc7QhSPM.s:2815   .debug_loc:0000000000000226 .LLST4
     /tmp/cc7QhSPM.s:2995   .debug_str:0000000000000325 .LASF114
     /tmp/cc7QhSPM.s:2829   .debug_loc:000000000000025f .LLST5
     /tmp/cc7QhSPM.s:2977   .debug_str:0000000000000292 .LASF115
     /tmp/cc7QhSPM.s:3145   .debug_str:000000000000080c .LASF116
     /tmp/cc7QhSPM.s:80     .text:000000000000003c .LFB20
     /tmp/cc7QhSPM.s:130    .text:000000000000006c .LFE20
     /tmp/cc7QhSPM.s:2923   .debug_str:00000000000000fb .LASF117
     /tmp/cc7QhSPM.s:2836   .debug_loc:0000000000000282 .LLST2
     /tmp/cc7QhSPM.s:2850   .debug_loc:00000000000002bb .LLST3
     /tmp/cc7QhSPM.s:3023   .debug_str:00000000000003c5 .LASF118
     /tmp/cc7QhSPM.s:2967   .debug_str:0000000000000245 .LASF119
     /tmp/cc7QhSPM.s:10     .text:0000000000000000 .LFB19
     /tmp/cc7QhSPM.s:74     .text:000000000000003c .LFE19
     /tmp/cc7QhSPM.s:2997   .debug_str:0000000000000333 .LASF120
     /tmp/cc7QhSPM.s:2857   .debug_loc:00000000000002de .LLST0
     /tmp/cc7QhSPM.s:3013   .debug_str:0000000000000385 .LASF121
     /tmp/cc7QhSPM.s:2871   .debug_loc:0000000000000317 .LLST1
     /tmp/cc7QhSPM.s:684    .text:000000000000024c .LVL43
     /tmp/cc7QhSPM.s:690    .text:0000000000000250 .LVL44
     /tmp/cc7QhSPM.s:695    .text:0000000000000254 .LVL45
     /tmp/cc7QhSPM.s:566    .text:00000000000001e0 .LVL36
     /tmp/cc7QhSPM.s:600    .text:0000000000000200 .LVL38
     /tmp/cc7QhSPM.s:605    .text:0000000000000204 .LVL39
     /tmp/cc7QhSPM.s:510    .text:00000000000001b0 .LVL32
     /tmp/cc7QhSPM.s:544    .text:00000000000001d0 .LVL34
     /tmp/cc7QhSPM.s:549    .text:00000000000001d4 .LVL35
     /tmp/cc7QhSPM.s:454    .text:0000000000000180 .LVL28
     /tmp/cc7QhSPM.s:488    .text:00000000000001a0 .LVL30
     /tmp/cc7QhSPM.s:493    .text:00000000000001a4 .LVL31
     /tmp/cc7QhSPM.s:398    .text:0000000000000150 .LVL24
     /tmp/cc7QhSPM.s:432    .text:0000000000000170 .LVL26
     /tmp/cc7QhSPM.s:437    .text:0000000000000174 .LVL27
     /tmp/cc7QhSPM.s:337    .text:000000000000011c .LVL20
     /tmp/cc7QhSPM.s:376    .text:0000000000000140 .LVL22
     /tmp/cc7QhSPM.s:381    .text:0000000000000144 .LVL23
     /tmp/cc7QhSPM.s:231    .text:00000000000000c0 .LVL15
     /tmp/cc7QhSPM.s:236    .text:00000000000000c4 .LVL16
     /tmp/cc7QhSPM.s:139    .text:000000000000006c .LVL10
     /tmp/cc7QhSPM.s:183    .text:0000000000000094 .LVL12
     /tmp/cc7QhSPM.s:188    .text:0000000000000098 .LVL13
     /tmp/cc7QhSPM.s:83     .text:000000000000003c .LVL6
     /tmp/cc7QhSPM.s:117    .text:000000000000005c .LVL8
     /tmp/cc7QhSPM.s:122    .text:0000000000000060 .LVL9
     /tmp/cc7QhSPM.s:14     .text:0000000000000000 .LVL0
     /tmp/cc7QhSPM.s:28     .text:0000000000000014 .LVL2
     /tmp/cc7QhSPM.s:24     .text:0000000000000010 .LVL1
     /tmp/cc7QhSPM.s:47     .text:0000000000000024 .LVL4
     /tmp/cc7QhSPM.s:758    .debug_info:0000000000000000 .Ldebug_info0
GAS LISTING /tmp/cc7QhSPM.s 			page 26



NO UNDEFINED SYMBOLS
