GAS LISTING /tmp/cc3Hxt4P.s 			page 1


   1              		.file	"TCB.cpp"
   2              		.option pic
   3              		.option norelax
   4              		.text
   5              	.Ltext0:
   6              		.align	2
   7              		.globl	_ZN3TCB7wrapperEv
   9              	_ZN3TCB7wrapperEv:
  10              	.LFB28:
  11              		.file 1 "src/TCB.cpp"
   1:src/TCB.cpp   **** //
   2:src/TCB.cpp   **** // Created by os on 8/6/23.
   3:src/TCB.cpp   **** //
   4:src/TCB.cpp   **** 
   5:src/TCB.cpp   **** #include "../h/TCB.h"
   6:src/TCB.cpp   **** #include "../h/Scheduler.h"
   7:src/TCB.cpp   **** #include "../h/syscall_c.hpp"
   8:src/TCB.cpp   **** #include "../h/printing.hpp"
   9:src/TCB.cpp   **** 
  10:src/TCB.cpp   **** extern "C" void pushRegisters();
  11:src/TCB.cpp   **** extern "C" void popRegisters();
  12:src/TCB.cpp   **** extern "C" void putJob(void*);
  13:src/TCB.cpp   **** 
  14:src/TCB.cpp   **** extern "C" void idleJob(void* arg){
  15:src/TCB.cpp   ****     while(1) {
  16:src/TCB.cpp   ****         while (!Scheduler::head) {}
  17:src/TCB.cpp   ****         thread_dispatch();
  18:src/TCB.cpp   ****     }
  19:src/TCB.cpp   **** }
  20:src/TCB.cpp   **** 
  21:src/TCB.cpp   **** TCB* TCB::running=nullptr;
  22:src/TCB.cpp   **** uint64 TCB::timeSliceCnt=0;
  23:src/TCB.cpp   **** BlockedElem* TCB::sleepHead= nullptr;
  24:src/TCB.cpp   **** 
  25:src/TCB.cpp   **** int TCB::_thread_create (TCB **instance, void (*start_routine)(void *), void *arg,void* stack) {
  26:src/TCB.cpp   ****     //TCB* t=new TCB(start_routine,arg,stack);
  27:src/TCB.cpp   ****     TCB* t=(TCB*)MemAlloc::getAllocator().mem_alloc((sizeof(TCB)+MEM_BLOCK_SIZE-1)/MEM_BLOCK_SIZE);
  28:src/TCB.cpp   ****     if(!t) return -1;
  29:src/TCB.cpp   ****     *t=TCB(start_routine,arg,stack);
  30:src/TCB.cpp   ****     *instance=t;
  31:src/TCB.cpp   ****     if(start_routine){
  32:src/TCB.cpp   ****         Scheduler::put(t);
  33:src/TCB.cpp   ****         t->context.ra=(uint64)wrapper; //da odmah krene na izvrsavanje tela, po prvom "vadjenju" iz
  34:src/TCB.cpp   ****         t->context.sp=(uint64)((uint8*)stack+DEFAULT_STACK_SIZE*8);
  35:src/TCB.cpp   ****     }
  36:src/TCB.cpp   ****     return 0;
  37:src/TCB.cpp   **** }
  38:src/TCB.cpp   **** 
  39:src/TCB.cpp   **** void TCB::_thread_dispatch() {
  40:src/TCB.cpp   ****     //pushRegisters();
  41:src/TCB.cpp   ****     TCB* old=TCB::running;
  42:src/TCB.cpp   ****     if(!old->finished && !old->blocked && old->timeSlice && !old->sleepTime) Scheduler::put(old);
  43:src/TCB.cpp   ****     if(old->finished){
  44:src/TCB.cpp   ****         MemAlloc::getAllocator().mem_free(old->stack);
  45:src/TCB.cpp   ****         /*int status2=MemAlloc::getAllocator().mem_free(old);
  46:src/TCB.cpp   ****         if (status1<0 || status2<0){
  47:src/TCB.cpp   ****             return;
GAS LISTING /tmp/cc3Hxt4P.s 			page 2


  48:src/TCB.cpp   ****         }*/ // nije uspela dealokacija, potrebno je vratiti se u _thread_exit i javiti kod greske
  49:src/TCB.cpp   ****         //old= nullptr;
  50:src/TCB.cpp   ****     }
  51:src/TCB.cpp   ****     running=Scheduler::get();
  52:src/TCB.cpp   ****     contextSwitch(&old->context,&running->context);
  53:src/TCB.cpp   ****     /*
  54:src/TCB.cpp   ****     if(running){
  55:src/TCB.cpp   **** 
  56:src/TCB.cpp   ****         popRegisters();
  57:src/TCB.cpp   ****     }*/
  58:src/TCB.cpp   **** }
  59:src/TCB.cpp   **** 
  60:src/TCB.cpp   **** void TCB::contextSwitch(TCB::Context *a, TCB::Context *b) {
  61:src/TCB.cpp   ****     __asm__ volatile("mv %0, ra": "=r"(a->ra));
  62:src/TCB.cpp   ****     __asm__ volatile("mv %0, sp": "=r"(a->sp));
  63:src/TCB.cpp   ****     __asm__ volatile("mv ra, %0": :"r"(b->ra));
  64:src/TCB.cpp   ****     __asm__ volatile("mv sp, %0": :"r"(b->sp));
  65:src/TCB.cpp   **** }
  66:src/TCB.cpp   **** 
  67:src/TCB.cpp   **** int TCB::_thread_exit() {
  68:src/TCB.cpp   ****     TCB* old=TCB::running;
  69:src/TCB.cpp   ****     old->finished=true;
  70:src/TCB.cpp   ****     _thread_dispatch();
  71:src/TCB.cpp   ****     return -1; //ako ne uspe dealokacija
  72:src/TCB.cpp   **** }
  73:src/TCB.cpp   **** 
  74:src/TCB.cpp   **** TCB::TCB(void (*start_routine)(void *), void *arg, void* stack) {
  75:src/TCB.cpp   ****     job=start_routine;
  76:src/TCB.cpp   ****     this->arg=arg;
  77:src/TCB.cpp   ****     this->stack=(uint64 *)stack;
  78:src/TCB.cpp   **** }
  79:src/TCB.cpp   **** 
  80:src/TCB.cpp   **** void TCB::_thread_join(TCB* handle) {
  81:src/TCB.cpp   ****     if(handle && !handle->finished){
  82:src/TCB.cpp   ****         TCB::running->blocked=true;
  83:src/TCB.cpp   ****         handle->addBlockedElem(TCB::running);
  84:src/TCB.cpp   ****         _thread_dispatch();
  85:src/TCB.cpp   ****     }
  86:src/TCB.cpp   **** }
  87:src/TCB.cpp   **** 
  88:src/TCB.cpp   **** void TCB::wrapper() {
  12              		.loc 1 88 21
  13              		.cfi_startproc
  14 0000 130101FE 		addi	sp,sp,-32
  15              		.cfi_def_cfa_offset 32
  16 0004 233C1100 		sd	ra,24(sp)
  17 0008 23388100 		sd	s0,16(sp)
  18 000c 23349100 		sd	s1,8(sp)
  19              		.cfi_offset 1, -8
  20              		.cfi_offset 8, -16
  21              		.cfi_offset 9, -24
  22 0010 13040102 		addi	s0,sp,32
  23              		.cfi_def_cfa 8, 0
  89:src/TCB.cpp   ****     if(TCB::running->job!=putJob)
  24              		.loc 1 89 5
  25              		.loc 1 89 22 is_stmt 0
  26 0014 97070000 		ld	a5,.LANCHOR0
GAS LISTING /tmp/cc3Hxt4P.s 			page 3


  26      83B70700 
  27 001c 03B78702 		ld	a4,40(a5)
  28              		.loc 1 89 5
  29 0020 97070000 		la	a5,putJob
  29      83B70700 
  30 0028 6306F700 		beq	a4,a5,.L2
  90:src/TCB.cpp   ****         RiscVReg::popSppSpie();
  31              		.loc 1 90 9 is_stmt 1
  32              		.loc 1 90 29 is_stmt 0
  33 002c 97000000 		call	_ZN8RiscVReg10popSppSpieEv@plt
  33      E7800000 
  34              	.LVL0:
  35              	.L2:
  91:src/TCB.cpp   ****     TCB::running->job(TCB::running->arg);
  36              		.loc 1 91 5 is_stmt 1
  37              		.loc 1 91 19 is_stmt 0
  38 0034 97040000 		lla	s1,.LANCHOR0
  38      93840400 
  39 003c 83B70400 		ld	a5,0(s1)
  40 0040 03B78702 		ld	a4,40(a5)
  41              		.loc 1 91 22
  42 0044 03B50703 		ld	a0,48(a5)
  43 0048 E7000700 		jalr	a4
  44              	.LVL1:
  92:src/TCB.cpp   ****     for(BlockedElem* tmp=TCB::running->blockedHead;tmp;tmp=tmp->next){
  45              		.loc 1 92 5 is_stmt 1
  46              	.LBB5:
  47              		.loc 1 92 40 is_stmt 0
  48 004c 83B70400 		ld	a5,0(s1)
  49              		.loc 1 92 22
  50 0050 83B40704 		ld	s1,64(a5)
  51              	.LVL2:
  52              	.L4:
  53              		.loc 1 92 52 is_stmt 1 discriminator 1
  54 0054 63860402 		beqz	s1,.L3
  93:src/TCB.cpp   ****         tmp->thread->blocked=false;
  55              		.loc 1 93 9
  56              		.loc 1 93 14 is_stmt 0
  57 0058 83B70400 		ld	a5,0(s1)
  58              		.loc 1 93 29
  59 005c A38C0702 		sb	zero,57(a5)
  94:src/TCB.cpp   ****         Scheduler::put(tmp->thread);
  60              		.loc 1 94 9 is_stmt 1
  61              		.loc 1 94 23 is_stmt 0
  62 0060 03B50400 		ld	a0,0(s1)
  63 0064 97000000 		call	_ZN9Scheduler3putEP3TCB@plt
  63      E7800000 
  64              	.LVL3:
  95:src/TCB.cpp   ****         delete tmp;
  65              		.loc 1 95 9 is_stmt 1
  66              		.loc 1 95 16 is_stmt 0
  67 006c 13850400 		mv	a0,s1
  68 0070 97000000 		call	_ZdlPv@plt
  68      E7800000 
  69              	.LVL4:
  92:src/TCB.cpp   ****         tmp->thread->blocked=false;
  70              		.loc 1 92 5 is_stmt 1
GAS LISTING /tmp/cc3Hxt4P.s 			page 4


  92:src/TCB.cpp   ****         tmp->thread->blocked=false;
  71              		.loc 1 92 59 is_stmt 0
  72 0078 83B48400 		ld	s1,8(s1)
  73              	.LVL5:
  92:src/TCB.cpp   ****         tmp->thread->blocked=false;
  74              		.loc 1 92 5
  75 007c 6FF09FFD 		j	.L4
  76              	.L3:
  77              	.LBE5:
  96:src/TCB.cpp   ****     }//obavestavanje svih onih niti koje su cekale i njihovo stavljanje u rasporedjivac
  97:src/TCB.cpp   ****     thread_exit();
  78              		.loc 1 97 5 is_stmt 1
  79              		.loc 1 97 16 is_stmt 0
  80 0080 97000000 		call	_Z11thread_exitv@plt
  80      E7800000 
  81              	.LVL6:
  98:src/TCB.cpp   **** }
  82              		.loc 1 98 1
  83 0088 83308101 		ld	ra,24(sp)
  84              		.cfi_restore 1
  85 008c 03340101 		ld	s0,16(sp)
  86              		.cfi_restore 8
  87              		.cfi_def_cfa 2, 32
  88 0090 83348100 		ld	s1,8(sp)
  89              		.cfi_restore 9
  90              	.LVL7:
  91 0094 13010102 		addi	sp,sp,32
  92              		.cfi_def_cfa_offset 0
  93 0098 67800000 		jr	ra
  94              		.cfi_endproc
  95              	.LFE28:
  97              		.align	2
  98              		.globl	idleJob
 100              	idleJob:
 101              	.LFB19:
  14:src/TCB.cpp   ****     while(1) {
 102              		.loc 1 14 35 is_stmt 1
 103              		.cfi_startproc
 104              	.LVL8:
 105              	.L11:
  15:src/TCB.cpp   ****         while (!Scheduler::head) {}
 106              		.loc 1 15 5
  16:src/TCB.cpp   ****         thread_dispatch();
 107              		.loc 1 16 9
  16:src/TCB.cpp   ****         thread_dispatch();
 108              		.loc 1 16 16
 109 009c 97070000 		la	a5,_ZN9Scheduler4headE
 109      83B70700 
 110 00a4 83B70700 		ld	a5,0(a5)
 111 00a8 E38A07FE 		beqz	a5,.L11
  14:src/TCB.cpp   ****     while(1) {
 112              		.loc 1 14 35 is_stmt 0
 113 00ac 130101FF 		addi	sp,sp,-16
 114              		.cfi_def_cfa_offset 16
 115 00b0 23341100 		sd	ra,8(sp)
 116 00b4 23308100 		sd	s0,0(sp)
 117              		.cfi_offset 1, -8
GAS LISTING /tmp/cc3Hxt4P.s 			page 5


 118              		.cfi_offset 8, -16
 119 00b8 13040101 		addi	s0,sp,16
 120              		.cfi_def_cfa 8, 0
 121              	.LVL9:
 122              	.L10:
  17:src/TCB.cpp   ****     }
 123              		.loc 1 17 9 is_stmt 1
  17:src/TCB.cpp   ****     }
 124              		.loc 1 17 24 is_stmt 0
 125 00bc 97000000 		call	_Z15thread_dispatchv@plt
 125      E7800000 
 126              	.LVL10:
  15:src/TCB.cpp   ****         while (!Scheduler::head) {}
 127              		.loc 1 15 5 is_stmt 1
 128              	.L7:
  15:src/TCB.cpp   ****         while (!Scheduler::head) {}
 129              		.loc 1 15 5
  16:src/TCB.cpp   ****         thread_dispatch();
 130              		.loc 1 16 9
  16:src/TCB.cpp   ****         thread_dispatch();
 131              		.loc 1 16 16
 132 00c4 97070000 		la	a5,_ZN9Scheduler4headE
 132      83B70700 
 133 00cc 83B70700 		ld	a5,0(a5)
 134 00d0 E39607FE 		bnez	a5,.L10
 135 00d4 6FF01FFF 		j	.L7
 136              		.cfi_endproc
 137              	.LFE19:
 139              		.align	2
 140              		.globl	_ZN3TCB13contextSwitchEPNS_7ContextES1_
 142              	_ZN3TCB13contextSwitchEPNS_7ContextES1_:
 143              	.LFB22:
  60:src/TCB.cpp   ****     __asm__ volatile("mv %0, ra": "=r"(a->ra));
 144              		.loc 1 60 59
 145              		.cfi_startproc
 146              	.LVL11:
 147 00d8 130101FF 		addi	sp,sp,-16
 148              		.cfi_def_cfa_offset 16
 149 00dc 23348100 		sd	s0,8(sp)
 150              		.cfi_offset 8, -8
 151 00e0 13040101 		addi	s0,sp,16
 152              		.cfi_def_cfa 8, 0
  61:src/TCB.cpp   ****     __asm__ volatile("mv %0, sp": "=r"(a->sp));
 153              		.loc 1 61 5
  61:src/TCB.cpp   ****     __asm__ volatile("mv %0, sp": "=r"(a->sp));
 154              		.loc 1 61 47 is_stmt 0
 155              	#APP
 156              	# 61 "src/TCB.cpp" 1
 157              		mv a5, ra
 158              	# 0 "" 2
 159              	#NO_APP
 160 00e8 2330F500 		sd	a5,0(a0)
  62:src/TCB.cpp   ****     __asm__ volatile("mv ra, %0": :"r"(b->ra));
 161              		.loc 1 62 5 is_stmt 1
  62:src/TCB.cpp   ****     __asm__ volatile("mv ra, %0": :"r"(b->ra));
 162              		.loc 1 62 47 is_stmt 0
 163              	#APP
GAS LISTING /tmp/cc3Hxt4P.s 			page 6


 164              	# 62 "src/TCB.cpp" 1
 165              		mv a5, sp
 166              	# 0 "" 2
 167              	#NO_APP
 168 00f0 2334F500 		sd	a5,8(a0)
  63:src/TCB.cpp   ****     __asm__ volatile("mv sp, %0": :"r"(b->sp));
 169              		.loc 1 63 5 is_stmt 1
  63:src/TCB.cpp   ****     __asm__ volatile("mv sp, %0": :"r"(b->sp));
 170              		.loc 1 63 43 is_stmt 0
 171 00f4 83B70500 		ld	a5,0(a1)
  63:src/TCB.cpp   ****     __asm__ volatile("mv sp, %0": :"r"(b->sp));
 172              		.loc 1 63 47
 173              	#APP
 174              	# 63 "src/TCB.cpp" 1
  64:src/TCB.cpp   **** }
 175              		mv ra, a5
 176              	# 0 "" 2
 177              		.loc 1 64 5 is_stmt 1
  64:src/TCB.cpp   **** }
 178              		.loc 1 64 43 is_stmt 0
 179              	#NO_APP
 180 00fc 83B78500 		ld	a5,8(a1)
  64:src/TCB.cpp   **** }
 181              		.loc 1 64 47
 182              	#APP
 183              	# 64 "src/TCB.cpp" 1
  65:src/TCB.cpp   **** 
 184              		mv sp, a5
 185              	# 0 "" 2
 186              		.loc 1 65 1
 187              	#NO_APP
 188 0104 03348100 		ld	s0,8(sp)
 189              		.cfi_restore 8
 190              		.cfi_def_cfa 2, 16
 191 0108 13010101 		addi	sp,sp,16
 192              		.cfi_def_cfa_offset 0
 193 010c 67800000 		jr	ra
 194              		.cfi_endproc
 195              	.LFE22:
 197              		.align	2
 198              		.globl	_ZN3TCB16_thread_dispatchEv
 200              	_ZN3TCB16_thread_dispatchEv:
 201              	.LFB21:
  39:src/TCB.cpp   ****     //pushRegisters();
 202              		.loc 1 39 30 is_stmt 1
 203              		.cfi_startproc
 204 0110 130101FE 		addi	sp,sp,-32
 205              		.cfi_def_cfa_offset 32
 206 0114 233C1100 		sd	ra,24(sp)
 207 0118 23388100 		sd	s0,16(sp)
 208 011c 23349100 		sd	s1,8(sp)
 209 0120 23302101 		sd	s2,0(sp)
 210              		.cfi_offset 1, -8
 211              		.cfi_offset 8, -16
 212              		.cfi_offset 9, -24
 213              		.cfi_offset 18, -32
 214 0124 13040102 		addi	s0,sp,32
GAS LISTING /tmp/cc3Hxt4P.s 			page 7


 215              		.cfi_def_cfa 8, 0
  41:src/TCB.cpp   ****     if(!old->finished && !old->blocked && old->timeSlice && !old->sleepTime) Scheduler::put(old);
 216              		.loc 1 41 5
  41:src/TCB.cpp   ****     if(!old->finished && !old->blocked && old->timeSlice && !old->sleepTime) Scheduler::put(old);
 217              		.loc 1 41 10 is_stmt 0
 218 0128 97040000 		ld	s1,.LANCHOR0
 218      83B40400 
 219              	.LVL12:
  42:src/TCB.cpp   ****     if(old->finished){
 220              		.loc 1 42 5 is_stmt 1
  42:src/TCB.cpp   ****     if(old->finished){
 221              		.loc 1 42 14 is_stmt 0
 222 0130 83C78403 		lbu	a5,56(s1)
  42:src/TCB.cpp   ****     if(old->finished){
 223              		.loc 1 42 5
 224 0134 639E0700 		bnez	a5,.L15
  42:src/TCB.cpp   ****     if(old->finished){
 225              		.loc 1 42 32 discriminator 1
 226 0138 83C79403 		lbu	a5,57(s1)
  42:src/TCB.cpp   ****     if(old->finished){
 227              		.loc 1 42 23 discriminator 1
 228 013c 639A0700 		bnez	a5,.L15
  42:src/TCB.cpp   ****     if(old->finished){
 229              		.loc 1 42 48 discriminator 2
 230 0140 83B70401 		ld	a5,16(s1)
  42:src/TCB.cpp   ****     if(old->finished){
 231              		.loc 1 42 40 discriminator 2
 232 0144 63860700 		beqz	a5,.L15
  42:src/TCB.cpp   ****     if(old->finished){
 233              		.loc 1 42 67 discriminator 3
 234 0148 83B78401 		ld	a5,24(s1)
  42:src/TCB.cpp   ****     if(old->finished){
 235              		.loc 1 42 58 discriminator 3
 236 014c 63820704 		beqz	a5,.L19
 237              	.L15:
  43:src/TCB.cpp   ****         MemAlloc::getAllocator().mem_free(old->stack);
 238              		.loc 1 43 5 is_stmt 1
  43:src/TCB.cpp   ****         MemAlloc::getAllocator().mem_free(old->stack);
 239              		.loc 1 43 13 is_stmt 0
 240 0150 83C78403 		lbu	a5,56(s1)
  43:src/TCB.cpp   ****         MemAlloc::getAllocator().mem_free(old->stack);
 241              		.loc 1 43 5
 242 0154 63960704 		bnez	a5,.L20
 243              	.L16:
  51:src/TCB.cpp   ****     contextSwitch(&old->context,&running->context);
 244              		.loc 1 51 5 is_stmt 1
  51:src/TCB.cpp   ****     contextSwitch(&old->context,&running->context);
 245              		.loc 1 51 27 is_stmt 0
 246 0158 97000000 		call	_ZN9Scheduler3getEv@plt
 246      E7800000 
 247              	.LVL13:
 248 0160 93050500 		mv	a1,a0
  51:src/TCB.cpp   ****     contextSwitch(&old->context,&running->context);
 249              		.loc 1 51 12
 250 0164 97070000 		sd	a0,.LANCHOR0,a5
 250      23B0A700 
  52:src/TCB.cpp   ****     /*
GAS LISTING /tmp/cc3Hxt4P.s 			page 8


 251              		.loc 1 52 5 is_stmt 1
  52:src/TCB.cpp   ****     /*
 252              		.loc 1 52 18 is_stmt 0
 253 016c 13850400 		mv	a0,s1
 254 0170 97000000 		call	_ZN3TCB13contextSwitchEPNS_7ContextES1_
 254      E7800000 
 255              	.LVL14:
  58:src/TCB.cpp   **** 
 256              		.loc 1 58 1
 257 0178 83308101 		ld	ra,24(sp)
 258              		.cfi_remember_state
 259              		.cfi_restore 1
 260 017c 03340101 		ld	s0,16(sp)
 261              		.cfi_restore 8
 262              		.cfi_def_cfa 2, 32
 263 0180 83348100 		ld	s1,8(sp)
 264              		.cfi_restore 9
 265              	.LVL15:
 266 0184 03390100 		ld	s2,0(sp)
 267              		.cfi_restore 18
 268 0188 13010102 		addi	sp,sp,32
 269              		.cfi_def_cfa_offset 0
 270 018c 67800000 		jr	ra
 271              	.LVL16:
 272              	.L19:
 273              		.cfi_restore_state
  42:src/TCB.cpp   ****     if(old->finished){
 274              		.loc 1 42 78 is_stmt 1 discriminator 4
  42:src/TCB.cpp   ****     if(old->finished){
 275              		.loc 1 42 92 is_stmt 0 discriminator 4
 276 0190 13850400 		mv	a0,s1
 277 0194 97000000 		call	_ZN9Scheduler3putEP3TCB@plt
 277      E7800000 
 278              	.LVL17:
 279 019c 6FF05FFB 		j	.L15
 280              	.L20:
  44:src/TCB.cpp   ****         /*int status2=MemAlloc::getAllocator().mem_free(old);
 281              		.loc 1 44 9 is_stmt 1
 282              	.LBB8:
 283              	.LBB9:
 284              		.file 2 "src/../h/MemoryAllocator.h"
   1:src/../h/MemoryAllocator.h **** //
   2:src/../h/MemoryAllocator.h **** // Created by os on 8/3/23.
   3:src/../h/MemoryAllocator.h **** //
   4:src/../h/MemoryAllocator.h **** 
   5:src/../h/MemoryAllocator.h **** #ifndef PROJECT_BASE_V1_1_MEMORYALLOCATOR_H
   6:src/../h/MemoryAllocator.h **** #define PROJECT_BASE_V1_1_MEMORYALLOCATOR_H
   7:src/../h/MemoryAllocator.h **** #include "../lib/hw.h"
   8:src/../h/MemoryAllocator.h **** 
   9:src/../h/MemoryAllocator.h **** class MemAlloc{
  10:src/../h/MemoryAllocator.h ****     struct FreeSeg{
  11:src/../h/MemoryAllocator.h ****         FreeSeg* prev;
  12:src/../h/MemoryAllocator.h ****         FreeSeg* next;
  13:src/../h/MemoryAllocator.h ****         size_t szBl;
  14:src/../h/MemoryAllocator.h ****         size_t szBy;
  15:src/../h/MemoryAllocator.h ****     };
  16:src/../h/MemoryAllocator.h ****     FreeSeg* headFree= nullptr;
GAS LISTING /tmp/cc3Hxt4P.s 			page 9


  17:src/../h/MemoryAllocator.h ****     bool flag=false;
  18:src/../h/MemoryAllocator.h ****     void tryToMerge(FreeSeg*);
  19:src/../h/MemoryAllocator.h ****     static size_t  bytesToBlocks(size_t s);
  20:src/../h/MemoryAllocator.h ****     MemAlloc()=default;
  21:src/../h/MemoryAllocator.h **** public:
  22:src/../h/MemoryAllocator.h ****     void* mem_alloc(size_t);
  23:src/../h/MemoryAllocator.h ****     int mem_free(void*);
  24:src/../h/MemoryAllocator.h ****     static MemAlloc& getAllocator(){
  25:src/../h/MemoryAllocator.h ****         static MemAlloc instance;
 285              		.loc 2 25 9
  26:src/../h/MemoryAllocator.h ****         if(!instance.flag){
 286              		.loc 2 26 9
 287              		.loc 2 26 22 is_stmt 0
 288 01a0 97070000 		lbu	a5,_ZZN8MemAlloc12getAllocatorEvE8instance+8
 288      83C70700 
 289              		.loc 2 26 9
 290 01a8 638E0700 		beqz	a5,.L21
 291              	.L17:
  27:src/../h/MemoryAllocator.h ****             instance.flag=true;
  28:src/../h/MemoryAllocator.h ****             instance.headFree=(FreeSeg*)HEAP_START_ADDR;
  29:src/../h/MemoryAllocator.h ****             instance.headFree->next= nullptr;
  30:src/../h/MemoryAllocator.h ****             instance.headFree->prev= nullptr;
  31:src/../h/MemoryAllocator.h ****             instance.headFree->szBy=(uint64)((uint64*)HEAP_END_ADDR-(uint64*)HEAP_START_ADDR);
  32:src/../h/MemoryAllocator.h ****             instance.headFree->szBl=bytesToBlocks(instance.headFree->szBy-sizeof(FreeSeg));
  33:src/../h/MemoryAllocator.h ****         }
  34:src/../h/MemoryAllocator.h ****         return instance;
 292              		.loc 2 34 9 is_stmt 1
 293              	.LBE9:
 294              	.LBE8:
  44:src/TCB.cpp   ****         /*int status2=MemAlloc::getAllocator().mem_free(old);
 295              		.loc 1 44 42 is_stmt 0
 296 01ac 83B50402 		ld	a1,32(s1)
 297 01b0 17050000 		lla	a0,_ZZN8MemAlloc12getAllocatorEvE8instance
 297      13050500 
 298 01b8 97000000 		call	_ZN8MemAlloc8mem_freeEPv@plt
 298      E7800000 
 299              	.LVL18:
 300 01c0 6FF09FF9 		j	.L16
 301              	.L21:
 302              	.LBB11:
 303              	.LBB10:
  27:src/../h/MemoryAllocator.h ****             instance.flag=true;
 304              		.loc 2 27 13 is_stmt 1
  27:src/../h/MemoryAllocator.h ****             instance.flag=true;
 305              		.loc 2 27 26 is_stmt 0
 306 01c4 97070000 		lla	a5,_ZZN8MemAlloc12getAllocatorEvE8instance
 306      93870700 
 307 01cc 13071000 		li	a4,1
 308 01d0 2384E700 		sb	a4,8(a5)
  28:src/../h/MemoryAllocator.h ****             instance.headFree->next= nullptr;
 309              		.loc 2 28 13 is_stmt 1
  28:src/../h/MemoryAllocator.h ****             instance.headFree->next= nullptr;
 310              		.loc 2 28 30 is_stmt 0
 311 01d4 97060000 		la	a3,HEAP_START_ADDR
 311      83B60600 
 312 01dc 03B70600 		ld	a4,0(a3)
 313 01e0 23B0E700 		sd	a4,0(a5)
GAS LISTING /tmp/cc3Hxt4P.s 			page 10


  29:src/../h/MemoryAllocator.h ****             instance.headFree->prev= nullptr;
 314              		.loc 2 29 13 is_stmt 1
  29:src/../h/MemoryAllocator.h ****             instance.headFree->prev= nullptr;
 315              		.loc 2 29 36 is_stmt 0
 316 01e4 23340700 		sd	zero,8(a4)
  30:src/../h/MemoryAllocator.h ****             instance.headFree->szBy=(uint64)((uint64*)HEAP_END_ADDR-(uint64*)HEAP_START_ADDR);
 317              		.loc 2 30 13 is_stmt 1
  30:src/../h/MemoryAllocator.h ****             instance.headFree->szBy=(uint64)((uint64*)HEAP_END_ADDR-(uint64*)HEAP_START_ADDR);
 318              		.loc 2 30 36 is_stmt 0
 319 01e8 23300700 		sd	zero,0(a4)
  31:src/../h/MemoryAllocator.h ****             instance.headFree->szBl=bytesToBlocks(instance.headFree->szBy-sizeof(FreeSeg));
 320              		.loc 2 31 13 is_stmt 1
  31:src/../h/MemoryAllocator.h ****             instance.headFree->szBl=bytesToBlocks(instance.headFree->szBy-sizeof(FreeSeg));
 321              		.loc 2 31 46 is_stmt 0
 322 01ec 17070000 		la	a4,HEAP_END_ADDR
 322      03370700 
 323 01f4 03350700 		ld	a0,0(a4)
  31:src/../h/MemoryAllocator.h ****             instance.headFree->szBl=bytesToBlocks(instance.headFree->szBy-sizeof(FreeSeg));
 324              		.loc 2 31 69
 325 01f8 03B70600 		ld	a4,0(a3)
  31:src/../h/MemoryAllocator.h ****             instance.headFree->szBl=bytesToBlocks(instance.headFree->szBy-sizeof(FreeSeg));
 326              		.loc 2 31 68
 327 01fc 3305E540 		sub	a0,a0,a4
 328 0200 13553540 		srai	a0,a0,3
  31:src/../h/MemoryAllocator.h ****             instance.headFree->szBl=bytesToBlocks(instance.headFree->szBy-sizeof(FreeSeg));
 329              		.loc 2 31 22
 330 0204 03B90700 		ld	s2,0(a5)
  31:src/../h/MemoryAllocator.h ****             instance.headFree->szBl=bytesToBlocks(instance.headFree->szBy-sizeof(FreeSeg));
 331              		.loc 2 31 36
 332 0208 233CA900 		sd	a0,24(s2)
  32:src/../h/MemoryAllocator.h ****         }
 333              		.loc 2 32 13 is_stmt 1
  32:src/../h/MemoryAllocator.h ****         }
 334              		.loc 2 32 50 is_stmt 0
 335 020c 130505FE 		addi	a0,a0,-32
 336 0210 97000000 		call	_ZN8MemAlloc13bytesToBlocksEm@plt
 336      E7800000 
 337              	.LVL19:
  32:src/../h/MemoryAllocator.h ****         }
 338              		.loc 2 32 36
 339 0218 2338A900 		sd	a0,16(s2)
 340 021c 6FF01FF9 		j	.L17
 341              	.LBE10:
 342              	.LBE11:
 343              		.cfi_endproc
 344              	.LFE21:
 346              		.align	2
 347              		.globl	_ZN3TCB12_thread_exitEv
 349              	_ZN3TCB12_thread_exitEv:
 350              	.LFB23:
  67:src/TCB.cpp   ****     TCB* old=TCB::running;
 351              		.loc 1 67 25 is_stmt 1
 352              		.cfi_startproc
 353 0220 130101FF 		addi	sp,sp,-16
 354              		.cfi_def_cfa_offset 16
 355 0224 23341100 		sd	ra,8(sp)
 356 0228 23308100 		sd	s0,0(sp)
GAS LISTING /tmp/cc3Hxt4P.s 			page 11


 357              		.cfi_offset 1, -8
 358              		.cfi_offset 8, -16
 359 022c 13040101 		addi	s0,sp,16
 360              		.cfi_def_cfa 8, 0
  68:src/TCB.cpp   ****     old->finished=true;
 361              		.loc 1 68 5
 362              	.LVL20:
  69:src/TCB.cpp   ****     _thread_dispatch();
 363              		.loc 1 69 5
  69:src/TCB.cpp   ****     _thread_dispatch();
 364              		.loc 1 69 18 is_stmt 0
 365 0230 97070000 		ld	a5,.LANCHOR0
 365      83B70700 
 366 0238 13071000 		li	a4,1
 367 023c 238CE702 		sb	a4,56(a5)
  70:src/TCB.cpp   ****     return -1; //ako ne uspe dealokacija
 368              		.loc 1 70 5 is_stmt 1
  70:src/TCB.cpp   ****     return -1; //ako ne uspe dealokacija
 369              		.loc 1 70 21 is_stmt 0
 370 0240 97000000 		call	_ZN3TCB16_thread_dispatchEv
 370      E7800000 
 371              	.LVL21:
  71:src/TCB.cpp   **** }
 372              		.loc 1 71 5 is_stmt 1
  72:src/TCB.cpp   **** 
 373              		.loc 1 72 1 is_stmt 0
 374 0248 1305F0FF 		li	a0,-1
 375 024c 83308100 		ld	ra,8(sp)
 376              		.cfi_restore 1
 377 0250 03340100 		ld	s0,0(sp)
 378              		.cfi_restore 8
 379              		.cfi_def_cfa 2, 16
 380 0254 13010101 		addi	sp,sp,16
 381              		.cfi_def_cfa_offset 0
 382 0258 67800000 		jr	ra
 383              		.cfi_endproc
 384              	.LFE23:
 386              		.align	2
 387              		.globl	_ZN3TCBC2EPFvPvES0_S0_
 389              	_ZN3TCBC2EPFvPvES0_S0_:
 390              	.LFB25:
  74:src/TCB.cpp   ****     job=start_routine;
 391              		.loc 1 74 1 is_stmt 1
 392              		.cfi_startproc
 393              	.LVL22:
 394 025c 130101FF 		addi	sp,sp,-16
 395              		.cfi_def_cfa_offset 16
 396 0260 23348100 		sd	s0,8(sp)
 397              		.cfi_offset 8, -8
 398 0264 13040101 		addi	s0,sp,16
 399              		.cfi_def_cfa 8, 0
 400              	.LBB12:
  74:src/TCB.cpp   ****     job=start_routine;
 401              		.loc 1 74 63 is_stmt 0
 402 0268 93072000 		li	a5,2
 403 026c 2338F500 		sd	a5,16(a0)
 404 0270 233C0500 		sd	zero,24(a0)
GAS LISTING /tmp/cc3Hxt4P.s 			page 12


 405 0274 230C0502 		sb	zero,56(a0)
 406 0278 A30C0502 		sb	zero,57(a0)
 407 027c 23300504 		sd	zero,64(a0)
  75:src/TCB.cpp   ****     this->arg=arg;
 408              		.loc 1 75 5 is_stmt 1
  75:src/TCB.cpp   ****     this->arg=arg;
 409              		.loc 1 75 8 is_stmt 0
 410 0280 2334B502 		sd	a1,40(a0)
  76:src/TCB.cpp   ****     this->stack=(uint64 *)stack;
 411              		.loc 1 76 5 is_stmt 1
  76:src/TCB.cpp   ****     this->stack=(uint64 *)stack;
 412              		.loc 1 76 14 is_stmt 0
 413 0284 2338C502 		sd	a2,48(a0)
  77:src/TCB.cpp   **** }
 414              		.loc 1 77 5 is_stmt 1
  77:src/TCB.cpp   **** }
 415              		.loc 1 77 16 is_stmt 0
 416 0288 2330D502 		sd	a3,32(a0)
 417              	.LBE12:
  78:src/TCB.cpp   **** 
 418              		.loc 1 78 1
 419 028c 03348100 		ld	s0,8(sp)
 420              		.cfi_restore 8
 421              		.cfi_def_cfa 2, 16
 422 0290 13010101 		addi	sp,sp,16
 423              		.cfi_def_cfa_offset 0
 424 0294 67800000 		jr	ra
 425              		.cfi_endproc
 426              	.LFE25:
 428              		.globl	_ZN3TCBC1EPFvPvES0_S0_
 429              		.set	_ZN3TCBC1EPFvPvES0_S0_,_ZN3TCBC2EPFvPvES0_S0_
 430              		.align	2
 431              		.globl	_ZN3TCB14_thread_createEPPS_PFvPvES2_S2_
 433              	_ZN3TCB14_thread_createEPPS_PFvPvES2_S2_:
 434              	.LFB20:
  25:src/TCB.cpp   ****     //TCB* t=new TCB(start_routine,arg,stack);
 435              		.loc 1 25 96 is_stmt 1
 436              		.cfi_startproc
 437              	.LVL23:
 438 0298 130101F7 		addi	sp,sp,-144
 439              		.cfi_def_cfa_offset 144
 440 029c 23341108 		sd	ra,136(sp)
 441 02a0 23308108 		sd	s0,128(sp)
 442 02a4 233C9106 		sd	s1,120(sp)
 443 02a8 23382107 		sd	s2,112(sp)
 444 02ac 23343107 		sd	s3,104(sp)
 445 02b0 23304107 		sd	s4,96(sp)
 446 02b4 233C5105 		sd	s5,88(sp)
 447              		.cfi_offset 1, -8
 448              		.cfi_offset 8, -16
 449              		.cfi_offset 9, -24
 450              		.cfi_offset 18, -32
 451              		.cfi_offset 19, -40
 452              		.cfi_offset 20, -48
 453              		.cfi_offset 21, -56
 454 02b8 13040109 		addi	s0,sp,144
 455              		.cfi_def_cfa 8, 0
GAS LISTING /tmp/cc3Hxt4P.s 			page 13


 456 02bc 130A0500 		mv	s4,a0
 457 02c0 93890500 		mv	s3,a1
 458 02c4 930A0600 		mv	s5,a2
 459 02c8 13890600 		mv	s2,a3
  27:src/TCB.cpp   ****     if(!t) return -1;
 460              		.loc 1 27 5
 461              	.LBB15:
 462              	.LBB16:
  25:src/../h/MemoryAllocator.h ****         if(!instance.flag){
 463              		.loc 2 25 9
  26:src/../h/MemoryAllocator.h ****             instance.flag=true;
 464              		.loc 2 26 9
  26:src/../h/MemoryAllocator.h ****             instance.flag=true;
 465              		.loc 2 26 22 is_stmt 0
 466 02cc 97070000 		lbu	a5,_ZZN8MemAlloc12getAllocatorEvE8instance+8
 466      83C70700 
  26:src/../h/MemoryAllocator.h ****             instance.flag=true;
 467              		.loc 2 26 9
 468 02d4 638A070C 		beqz	a5,.L32
 469              	.LVL24:
 470              	.L27:
 471              		.loc 2 34 9 is_stmt 1
 472              	.LBE16:
 473              	.LBE15:
  27:src/TCB.cpp   ****     if(!t) return -1;
 474              		.loc 1 27 52 is_stmt 0
 475 02d8 93052000 		li	a1,2
 476 02dc 17050000 		lla	a0,_ZZN8MemAlloc12getAllocatorEvE8instance
 476      13050500 
 477 02e4 97000000 		call	_ZN8MemAlloc9mem_allocEm@plt
 477      E7800000 
 478              	.LVL25:
 479 02ec 93040500 		mv	s1,a0
 480              	.LVL26:
  28:src/TCB.cpp   ****     *t=TCB(start_routine,arg,stack);
 481              		.loc 1 28 5 is_stmt 1
 482 02f0 630A0510 		beqz	a0,.L29
  29:src/TCB.cpp   ****     *instance=t;
 483              		.loc 1 29 5
  29:src/TCB.cpp   ****     *instance=t;
 484              		.loc 1 29 8 is_stmt 0
 485 02f4 93060900 		mv	a3,s2
 486 02f8 13860A00 		mv	a2,s5
 487 02fc 93850900 		mv	a1,s3
 488 0300 130584F7 		addi	a0,s0,-136
 489 0304 97000000 		call	_ZN3TCBC1EPFvPvES0_S0_
 489      E7800000 
 490              	.LVL27:
  29:src/TCB.cpp   ****     *instance=t;
 491              		.loc 1 29 7
 492 030c 833804F8 		ld	a7,-128(s0)
 493 0310 033884F8 		ld	a6,-120(s0)
 494 0314 033504F9 		ld	a0,-112(s0)
 495 0318 833584F9 		ld	a1,-104(s0)
 496 031c 033604FA 		ld	a2,-96(s0)
 497 0320 833684FA 		ld	a3,-88(s0)
 498 0324 033704FB 		ld	a4,-80(s0)
GAS LISTING /tmp/cc3Hxt4P.s 			page 14


 499 0328 833784FB 		ld	a5,-72(s0)
 500 032c 033384F7 		ld	t1,-136(s0)
 501 0330 23B06400 		sd	t1,0(s1)
 502 0334 23B41401 		sd	a7,8(s1)
 503 0338 23B80401 		sd	a6,16(s1)
 504 033c 23BCA400 		sd	a0,24(s1)
 505 0340 23B0B402 		sd	a1,32(s1)
 506 0344 23B4C402 		sd	a2,40(s1)
 507 0348 23B8D402 		sd	a3,48(s1)
 508 034c 23BCE402 		sd	a4,56(s1)
 509 0350 23B0F404 		sd	a5,64(s1)
  30:src/TCB.cpp   ****     if(start_routine){
 510              		.loc 1 30 5 is_stmt 1
  30:src/TCB.cpp   ****     if(start_routine){
 511              		.loc 1 30 14 is_stmt 0
 512 0354 23309A00 		sd	s1,0(s4)
  31:src/TCB.cpp   ****         Scheduler::put(t);
 513              		.loc 1 31 5 is_stmt 1
 514 0358 638A090A 		beqz	s3,.L30
  32:src/TCB.cpp   ****         t->context.ra=(uint64)wrapper; //da odmah krene na izvrsavanje tela, po prvom "vadjenju" iz
 515              		.loc 1 32 9
  32:src/TCB.cpp   ****         t->context.ra=(uint64)wrapper; //da odmah krene na izvrsavanje tela, po prvom "vadjenju" iz
 516              		.loc 1 32 23 is_stmt 0
 517 035c 13850400 		mv	a0,s1
 518 0360 97000000 		call	_ZN9Scheduler3putEP3TCB@plt
 518      E7800000 
 519              	.LVL28:
  33:src/TCB.cpp   ****         t->context.sp=(uint64)((uint8*)stack+DEFAULT_STACK_SIZE*8);
 520              		.loc 1 33 9 is_stmt 1
  33:src/TCB.cpp   ****         t->context.sp=(uint64)((uint8*)stack+DEFAULT_STACK_SIZE*8);
 521              		.loc 1 33 22 is_stmt 0
 522 0368 97070000 		lla	a5,_ZN3TCB7wrapperEv
 522      93870700 
 523 0370 23B0F400 		sd	a5,0(s1)
  34:src/TCB.cpp   ****     }
 524              		.loc 1 34 9 is_stmt 1
  34:src/TCB.cpp   ****     }
 525              		.loc 1 34 45 is_stmt 0
 526 0374 B7860000 		li	a3,32768
 527 0378 B306D900 		add	a3,s2,a3
  34:src/TCB.cpp   ****     }
 528              		.loc 1 34 22
 529 037c 23B4D400 		sd	a3,8(s1)
  36:src/TCB.cpp   **** }
 530              		.loc 1 36 12
 531 0380 13050000 		li	a0,0
 532              	.L28:
  37:src/TCB.cpp   **** 
 533              		.loc 1 37 1
 534 0384 83308108 		ld	ra,136(sp)
 535              		.cfi_remember_state
 536              		.cfi_restore 1
 537 0388 03340108 		ld	s0,128(sp)
 538              		.cfi_restore 8
 539              		.cfi_def_cfa 2, 144
 540 038c 83348107 		ld	s1,120(sp)
 541              		.cfi_restore 9
GAS LISTING /tmp/cc3Hxt4P.s 			page 15


 542              	.LVL29:
 543 0390 03390107 		ld	s2,112(sp)
 544              		.cfi_restore 18
 545              	.LVL30:
 546 0394 83398106 		ld	s3,104(sp)
 547              		.cfi_restore 19
 548              	.LVL31:
 549 0398 033A0106 		ld	s4,96(sp)
 550              		.cfi_restore 20
 551              	.LVL32:
 552 039c 833A8105 		ld	s5,88(sp)
 553              		.cfi_restore 21
 554              	.LVL33:
 555 03a0 13010109 		addi	sp,sp,144
 556              		.cfi_def_cfa_offset 0
 557 03a4 67800000 		jr	ra
 558              	.LVL34:
 559              	.L32:
 560              		.cfi_restore_state
 561              	.LBB18:
 562              	.LBB17:
  27:src/../h/MemoryAllocator.h ****             instance.headFree=(FreeSeg*)HEAP_START_ADDR;
 563              		.loc 2 27 13 is_stmt 1
  27:src/../h/MemoryAllocator.h ****             instance.headFree=(FreeSeg*)HEAP_START_ADDR;
 564              		.loc 2 27 26 is_stmt 0
 565 03a8 17070000 		lla	a4,_ZZN8MemAlloc12getAllocatorEvE8instance
 565      13070700 
 566 03b0 93071000 		li	a5,1
 567 03b4 2304F700 		sb	a5,8(a4)
  28:src/../h/MemoryAllocator.h ****             instance.headFree->next= nullptr;
 568              		.loc 2 28 13 is_stmt 1
  28:src/../h/MemoryAllocator.h ****             instance.headFree->next= nullptr;
 569              		.loc 2 28 30 is_stmt 0
 570 03b8 97060000 		la	a3,HEAP_START_ADDR
 570      83B60600 
 571              	.LVL35:
 572 03c0 83B70600 		ld	a5,0(a3)
 573 03c4 2330F700 		sd	a5,0(a4)
  29:src/../h/MemoryAllocator.h ****             instance.headFree->prev= nullptr;
 574              		.loc 2 29 13 is_stmt 1
  29:src/../h/MemoryAllocator.h ****             instance.headFree->prev= nullptr;
 575              		.loc 2 29 36 is_stmt 0
 576 03c8 23B40700 		sd	zero,8(a5)
  30:src/../h/MemoryAllocator.h ****             instance.headFree->szBy=(uint64)((uint64*)HEAP_END_ADDR-(uint64*)HEAP_START_ADDR);
 577              		.loc 2 30 13 is_stmt 1
  30:src/../h/MemoryAllocator.h ****             instance.headFree->szBy=(uint64)((uint64*)HEAP_END_ADDR-(uint64*)HEAP_START_ADDR);
 578              		.loc 2 30 36 is_stmt 0
 579 03cc 23B00700 		sd	zero,0(a5)
  31:src/../h/MemoryAllocator.h ****             instance.headFree->szBl=bytesToBlocks(instance.headFree->szBy-sizeof(FreeSeg));
 580              		.loc 2 31 13 is_stmt 1
  31:src/../h/MemoryAllocator.h ****             instance.headFree->szBl=bytesToBlocks(instance.headFree->szBy-sizeof(FreeSeg));
 581              		.loc 2 31 46 is_stmt 0
 582 03d0 97070000 		la	a5,HEAP_END_ADDR
 582      83B70700 
 583 03d8 83B70700 		ld	a5,0(a5)
  31:src/../h/MemoryAllocator.h ****             instance.headFree->szBl=bytesToBlocks(instance.headFree->szBy-sizeof(FreeSeg));
 584              		.loc 2 31 69
GAS LISTING /tmp/cc3Hxt4P.s 			page 16


 585 03dc 03B50600 		ld	a0,0(a3)
 586              	.LVL36:
  31:src/../h/MemoryAllocator.h ****             instance.headFree->szBl=bytesToBlocks(instance.headFree->szBy-sizeof(FreeSeg));
 587              		.loc 2 31 68
 588 03e0 B387A740 		sub	a5,a5,a0
 589 03e4 93D73740 		srai	a5,a5,3
  31:src/../h/MemoryAllocator.h ****             instance.headFree->szBl=bytesToBlocks(instance.headFree->szBy-sizeof(FreeSeg));
 590              		.loc 2 31 22
 591 03e8 83340700 		ld	s1,0(a4)
  31:src/../h/MemoryAllocator.h ****             instance.headFree->szBl=bytesToBlocks(instance.headFree->szBy-sizeof(FreeSeg));
 592              		.loc 2 31 36
 593 03ec 23BCF400 		sd	a5,24(s1)
  32:src/../h/MemoryAllocator.h ****         }
 594              		.loc 2 32 13 is_stmt 1
  32:src/../h/MemoryAllocator.h ****         }
 595              		.loc 2 32 50 is_stmt 0
 596 03f0 138507FE 		addi	a0,a5,-32
 597 03f4 97000000 		call	_ZN8MemAlloc13bytesToBlocksEm@plt
 597      E7800000 
 598              	.LVL37:
  32:src/../h/MemoryAllocator.h ****         }
 599              		.loc 2 32 36
 600 03fc 23B8A400 		sd	a0,16(s1)
 601 0400 6FF09FED 		j	.L27
 602              	.LVL38:
 603              	.L29:
 604              	.LBE17:
 605              	.LBE18:
  28:src/TCB.cpp   ****     *t=TCB(start_routine,arg,stack);
 606              		.loc 1 28 20
 607 0404 1305F0FF 		li	a0,-1
 608 0408 6FF0DFF7 		j	.L28
 609              	.L30:
  36:src/TCB.cpp   **** }
 610              		.loc 1 36 12
 611 040c 13050000 		li	a0,0
 612 0410 6FF05FF7 		j	.L28
 613              		.cfi_endproc
 614              	.LFE20:
 616              		.align	2
 617              		.globl	_ZN3TCB14addBlockedElemEPS_
 619              	_ZN3TCB14addBlockedElemEPS_:
 620              	.LFB29:
  99:src/TCB.cpp   **** 
 100:src/TCB.cpp   **** void TCB::addBlockedElem(TCB *t) {
 621              		.loc 1 100 34 is_stmt 1
 622              		.cfi_startproc
 623              	.LVL39:
 624 0414 130101FD 		addi	sp,sp,-48
 625              		.cfi_def_cfa_offset 48
 626 0418 23341102 		sd	ra,40(sp)
 627 041c 23308102 		sd	s0,32(sp)
 628 0420 233C9100 		sd	s1,24(sp)
 629 0424 23382101 		sd	s2,16(sp)
 630 0428 23343101 		sd	s3,8(sp)
 631              		.cfi_offset 1, -8
 632              		.cfi_offset 8, -16
GAS LISTING /tmp/cc3Hxt4P.s 			page 17


 633              		.cfi_offset 9, -24
 634              		.cfi_offset 18, -32
 635              		.cfi_offset 19, -40
 636 042c 13040103 		addi	s0,sp,48
 637              		.cfi_def_cfa 8, 0
 638 0430 93040500 		mv	s1,a0
 639 0434 13890500 		mv	s2,a1
 101:src/TCB.cpp   ****     BlockedElem *newElem = (BlockedElem*)MemAlloc::getAllocator().mem_alloc((sizeof(BlockedElem)+ME
 640              		.loc 1 101 5
 641              	.LBB21:
 642              	.LBB22:
  25:src/../h/MemoryAllocator.h ****         if(!instance.flag){
 643              		.loc 2 25 9
  26:src/../h/MemoryAllocator.h ****             instance.flag=true;
 644              		.loc 2 26 9
  26:src/../h/MemoryAllocator.h ****             instance.flag=true;
 645              		.loc 2 26 22 is_stmt 0
 646 0438 97070000 		lbu	a5,_ZZN8MemAlloc12getAllocatorEvE8instance+8
 646      83C70700 
  26:src/../h/MemoryAllocator.h ****             instance.flag=true;
 647              		.loc 2 26 9
 648 0440 638A0704 		beqz	a5,.L38
 649              	.LVL40:
 650              	.L34:
 651              		.loc 2 34 9 is_stmt 1
 652              	.LBE22:
 653              	.LBE21:
 654              		.loc 1 101 76 is_stmt 0
 655 0444 93051000 		li	a1,1
 656 0448 17050000 		lla	a0,_ZZN8MemAlloc12getAllocatorEvE8instance
 656      13050500 
 657 0450 97000000 		call	_ZN8MemAlloc9mem_allocEm@plt
 657      E7800000 
 658              	.LVL41:
 102:src/TCB.cpp   ****     newElem->next= nullptr;
 659              		.loc 1 102 5 is_stmt 1
 660              		.loc 1 102 18 is_stmt 0
 661 0458 23340500 		sd	zero,8(a0)
 103:src/TCB.cpp   ****     newElem->prev= nullptr;
 662              		.loc 1 103 5 is_stmt 1
 663              		.loc 1 103 18 is_stmt 0
 664 045c 23380500 		sd	zero,16(a0)
 104:src/TCB.cpp   ****     newElem->thread=t;
 665              		.loc 1 104 5 is_stmt 1
 666              		.loc 1 104 20 is_stmt 0
 667 0460 23302501 		sd	s2,0(a0)
 105:src/TCB.cpp   ****     if (!this->blockedHead) {
 668              		.loc 1 105 5 is_stmt 1
 669              		.loc 1 105 16 is_stmt 0
 670 0464 83B70404 		ld	a5,64(s1)
 671              		.loc 1 105 5
 672 0468 63840708 		beqz	a5,.L39
 106:src/TCB.cpp   ****         this->blockedHead = newElem;
 107:src/TCB.cpp   ****     } else {
 108:src/TCB.cpp   ****         newElem->next = this->blockedHead;
 673              		.loc 1 108 9 is_stmt 1
 674              		.loc 1 108 23 is_stmt 0
GAS LISTING /tmp/cc3Hxt4P.s 			page 18


 675 046c 2334F500 		sd	a5,8(a0)
 109:src/TCB.cpp   ****         this->blockedHead->prev=newElem;
 676              		.loc 1 109 9 is_stmt 1
 677              		.loc 1 109 32 is_stmt 0
 678 0470 23B8A700 		sd	a0,16(a5)
 110:src/TCB.cpp   ****         this->blockedHead = newElem;
 679              		.loc 1 110 9 is_stmt 1
 680              		.loc 1 110 27 is_stmt 0
 681 0474 23B0A404 		sd	a0,64(s1)
 682              	.L33:
 111:src/TCB.cpp   ****     }
 112:src/TCB.cpp   **** }
 683              		.loc 1 112 1
 684 0478 83308102 		ld	ra,40(sp)
 685              		.cfi_remember_state
 686              		.cfi_restore 1
 687 047c 03340102 		ld	s0,32(sp)
 688              		.cfi_restore 8
 689              		.cfi_def_cfa 2, 48
 690 0480 83348101 		ld	s1,24(sp)
 691              		.cfi_restore 9
 692              	.LVL42:
 693 0484 03390101 		ld	s2,16(sp)
 694              		.cfi_restore 18
 695              	.LVL43:
 696 0488 83398100 		ld	s3,8(sp)
 697              		.cfi_restore 19
 698 048c 13010103 		addi	sp,sp,48
 699              		.cfi_def_cfa_offset 0
 700 0490 67800000 		jr	ra
 701              	.LVL44:
 702              	.L38:
 703              		.cfi_restore_state
 704              	.LBB24:
 705              	.LBB23:
  27:src/../h/MemoryAllocator.h ****             instance.headFree=(FreeSeg*)HEAP_START_ADDR;
 706              		.loc 2 27 13 is_stmt 1
  27:src/../h/MemoryAllocator.h ****             instance.headFree=(FreeSeg*)HEAP_START_ADDR;
 707              		.loc 2 27 26 is_stmt 0
 708 0494 97070000 		lla	a5,_ZZN8MemAlloc12getAllocatorEvE8instance
 708      93870700 
 709 049c 13071000 		li	a4,1
 710 04a0 2384E700 		sb	a4,8(a5)
  28:src/../h/MemoryAllocator.h ****             instance.headFree->next= nullptr;
 711              		.loc 2 28 13 is_stmt 1
  28:src/../h/MemoryAllocator.h ****             instance.headFree->next= nullptr;
 712              		.loc 2 28 30 is_stmt 0
 713 04a4 97060000 		la	a3,HEAP_START_ADDR
 713      83B60600 
 714 04ac 03B70600 		ld	a4,0(a3)
 715 04b0 23B0E700 		sd	a4,0(a5)
  29:src/../h/MemoryAllocator.h ****             instance.headFree->prev= nullptr;
 716              		.loc 2 29 13 is_stmt 1
  29:src/../h/MemoryAllocator.h ****             instance.headFree->prev= nullptr;
 717              		.loc 2 29 36 is_stmt 0
 718 04b4 23340700 		sd	zero,8(a4)
  30:src/../h/MemoryAllocator.h ****             instance.headFree->szBy=(uint64)((uint64*)HEAP_END_ADDR-(uint64*)HEAP_START_ADDR);
GAS LISTING /tmp/cc3Hxt4P.s 			page 19


 719              		.loc 2 30 13 is_stmt 1
  30:src/../h/MemoryAllocator.h ****             instance.headFree->szBy=(uint64)((uint64*)HEAP_END_ADDR-(uint64*)HEAP_START_ADDR);
 720              		.loc 2 30 36 is_stmt 0
 721 04b8 23300700 		sd	zero,0(a4)
  31:src/../h/MemoryAllocator.h ****             instance.headFree->szBl=bytesToBlocks(instance.headFree->szBy-sizeof(FreeSeg));
 722              		.loc 2 31 13 is_stmt 1
  31:src/../h/MemoryAllocator.h ****             instance.headFree->szBl=bytesToBlocks(instance.headFree->szBy-sizeof(FreeSeg));
 723              		.loc 2 31 46 is_stmt 0
 724 04bc 17070000 		la	a4,HEAP_END_ADDR
 724      03370700 
 725 04c4 03350700 		ld	a0,0(a4)
  31:src/../h/MemoryAllocator.h ****             instance.headFree->szBl=bytesToBlocks(instance.headFree->szBy-sizeof(FreeSeg));
 726              		.loc 2 31 69
 727 04c8 03B70600 		ld	a4,0(a3)
  31:src/../h/MemoryAllocator.h ****             instance.headFree->szBl=bytesToBlocks(instance.headFree->szBy-sizeof(FreeSeg));
 728              		.loc 2 31 68
 729 04cc 3305E540 		sub	a0,a0,a4
 730 04d0 13553540 		srai	a0,a0,3
  31:src/../h/MemoryAllocator.h ****             instance.headFree->szBl=bytesToBlocks(instance.headFree->szBy-sizeof(FreeSeg));
 731              		.loc 2 31 22
 732 04d4 83B90700 		ld	s3,0(a5)
  31:src/../h/MemoryAllocator.h ****             instance.headFree->szBl=bytesToBlocks(instance.headFree->szBy-sizeof(FreeSeg));
 733              		.loc 2 31 36
 734 04d8 23BCA900 		sd	a0,24(s3)
  32:src/../h/MemoryAllocator.h ****         }
 735              		.loc 2 32 13 is_stmt 1
  32:src/../h/MemoryAllocator.h ****         }
 736              		.loc 2 32 50 is_stmt 0
 737 04dc 130505FE 		addi	a0,a0,-32
 738 04e0 97000000 		call	_ZN8MemAlloc13bytesToBlocksEm@plt
 738      E7800000 
 739              	.LVL45:
  32:src/../h/MemoryAllocator.h ****         }
 740              		.loc 2 32 36
 741 04e8 23B8A900 		sd	a0,16(s3)
 742 04ec 6FF09FF5 		j	.L34
 743              	.LVL46:
 744              	.L39:
 745              	.LBE23:
 746              	.LBE24:
 106:src/TCB.cpp   ****     } else {
 747              		.loc 1 106 9 is_stmt 1
 106:src/TCB.cpp   ****     } else {
 748              		.loc 1 106 27 is_stmt 0
 749 04f0 23B0A404 		sd	a0,64(s1)
 750 04f4 6FF05FF8 		j	.L33
 751              		.cfi_endproc
 752              	.LFE29:
 754              		.align	2
 755              		.globl	_ZN3TCB12_thread_joinEPS_
 757              	_ZN3TCB12_thread_joinEPS_:
 758              	.LFB27:
  80:src/TCB.cpp   ****     if(handle && !handle->finished){
 759              		.loc 1 80 37 is_stmt 1
 760              		.cfi_startproc
 761              	.LVL47:
  81:src/TCB.cpp   ****         TCB::running->blocked=true;
GAS LISTING /tmp/cc3Hxt4P.s 			page 20


 762              		.loc 1 81 5
 763 04f8 63060500 		beqz	a0,.L43
  81:src/TCB.cpp   ****         TCB::running->blocked=true;
 764              		.loc 1 81 27 is_stmt 0 discriminator 1
 765 04fc 83478503 		lbu	a5,56(a0)
  81:src/TCB.cpp   ****         TCB::running->blocked=true;
 766              		.loc 1 81 15 discriminator 1
 767 0500 63840700 		beqz	a5,.L46
 768              	.L43:
 769 0504 67800000 		ret
 770              	.L46:
  80:src/TCB.cpp   ****     if(handle && !handle->finished){
 771              		.loc 1 80 37
 772 0508 130101FF 		addi	sp,sp,-16
 773              		.cfi_def_cfa_offset 16
 774 050c 23341100 		sd	ra,8(sp)
 775 0510 23308100 		sd	s0,0(sp)
 776              		.cfi_offset 1, -8
 777              		.cfi_offset 8, -16
 778 0514 13040101 		addi	s0,sp,16
 779              		.cfi_def_cfa 8, 0
  82:src/TCB.cpp   ****         handle->addBlockedElem(TCB::running);
 780              		.loc 1 82 9 is_stmt 1
  82:src/TCB.cpp   ****         handle->addBlockedElem(TCB::running);
 781              		.loc 1 82 23 is_stmt 0
 782 0518 97050000 		ld	a1,.LANCHOR0
 782      83B50500 
  82:src/TCB.cpp   ****         handle->addBlockedElem(TCB::running);
 783              		.loc 1 82 30
 784 0520 93071000 		li	a5,1
 785 0524 A38CF502 		sb	a5,57(a1)
  83:src/TCB.cpp   ****         _thread_dispatch();
 786              		.loc 1 83 9 is_stmt 1
  83:src/TCB.cpp   ****         _thread_dispatch();
 787              		.loc 1 83 31 is_stmt 0
 788 0528 97000000 		call	_ZN3TCB14addBlockedElemEPS_
 788      E7800000 
 789              	.LVL48:
  84:src/TCB.cpp   ****     }
 790              		.loc 1 84 9 is_stmt 1
  84:src/TCB.cpp   ****     }
 791              		.loc 1 84 25 is_stmt 0
 792 0530 97000000 		call	_ZN3TCB16_thread_dispatchEv
 792      E7800000 
 793              	.LVL49:
  86:src/TCB.cpp   **** 
 794              		.loc 1 86 1
 795 0538 83308100 		ld	ra,8(sp)
 796              		.cfi_restore 1
 797 053c 03340100 		ld	s0,0(sp)
 798              		.cfi_restore 8
 799              		.cfi_def_cfa 2, 16
 800 0540 13010101 		addi	sp,sp,16
 801              		.cfi_def_cfa_offset 0
 802 0544 67800000 		jr	ra
 803              		.cfi_endproc
 804              	.LFE27:
GAS LISTING /tmp/cc3Hxt4P.s 			page 21


 806              		.align	2
 807              		.globl	_ZN3TCB14addSleepedElemEPS_
 809              	_ZN3TCB14addSleepedElemEPS_:
 810              	.LFB30:
 113:src/TCB.cpp   **** 
 114:src/TCB.cpp   **** void TCB::addSleepedElem(TCB *t) {
 811              		.loc 1 114 34 is_stmt 1
 812              		.cfi_startproc
 813              	.LVL50:
 814 0548 130101FE 		addi	sp,sp,-32
 815              		.cfi_def_cfa_offset 32
 816 054c 233C1100 		sd	ra,24(sp)
 817 0550 23388100 		sd	s0,16(sp)
 818 0554 23349100 		sd	s1,8(sp)
 819 0558 23302101 		sd	s2,0(sp)
 820              		.cfi_offset 1, -8
 821              		.cfi_offset 8, -16
 822              		.cfi_offset 9, -24
 823              		.cfi_offset 18, -32
 824 055c 13040102 		addi	s0,sp,32
 825              		.cfi_def_cfa 8, 0
 826 0560 93040500 		mv	s1,a0
 115:src/TCB.cpp   ****     BlockedElem *newElem = (BlockedElem*)MemAlloc::getAllocator().mem_alloc((sizeof(BlockedElem)+ME
 827              		.loc 1 115 5
 828              	.LBB29:
 829              	.LBB30:
  25:src/../h/MemoryAllocator.h ****         if(!instance.flag){
 830              		.loc 2 25 9
  26:src/../h/MemoryAllocator.h ****             instance.flag=true;
 831              		.loc 2 26 9
  26:src/../h/MemoryAllocator.h ****             instance.flag=true;
 832              		.loc 2 26 22 is_stmt 0
 833 0564 97070000 		lbu	a5,_ZZN8MemAlloc12getAllocatorEvE8instance+8
 833      83C70700 
  26:src/../h/MemoryAllocator.h ****             instance.flag=true;
 834              		.loc 2 26 9
 835 056c 638E0702 		beqz	a5,.L57
 836              	.LVL51:
 837              	.L48:
 838              		.loc 2 34 9 is_stmt 1
 839              	.LBE30:
 840              	.LBE29:
 841              		.loc 1 115 76 is_stmt 0
 842 0570 93051000 		li	a1,1
 843 0574 17050000 		lla	a0,_ZZN8MemAlloc12getAllocatorEvE8instance
 843      13050500 
 844 057c 97000000 		call	_ZN8MemAlloc9mem_allocEm@plt
 844      E7800000 
 845              	.LVL52:
 116:src/TCB.cpp   ****     newElem->next= nullptr;
 846              		.loc 1 116 5 is_stmt 1
 847              		.loc 1 116 18 is_stmt 0
 848 0584 23340500 		sd	zero,8(a0)
 117:src/TCB.cpp   ****     newElem->prev= nullptr;
 849              		.loc 1 117 5 is_stmt 1
 850              		.loc 1 117 18 is_stmt 0
 851 0588 23380500 		sd	zero,16(a0)
GAS LISTING /tmp/cc3Hxt4P.s 			page 22


 118:src/TCB.cpp   ****     newElem->thread=t;
 852              		.loc 1 118 5 is_stmt 1
 853              		.loc 1 118 20 is_stmt 0
 854 058c 23309500 		sd	s1,0(a0)
 119:src/TCB.cpp   ****     if(!sleepHead){
 855              		.loc 1 119 5 is_stmt 1
 856              	.LBB32:
 857              		.loc 1 119 8 is_stmt 0
 858 0590 97070000 		ld	a5,.LANCHOR0+8
 858      83B70700 
 859              		.loc 1 119 5
 860 0598 63980706 		bnez	a5,.L49
 120:src/TCB.cpp   ****         sleepHead=newElem;
 861              		.loc 1 120 9 is_stmt 1
 862              		.loc 1 120 18 is_stmt 0
 863 059c 97070000 		sd	a0,.LANCHOR0+8,a5
 863      23B0A700 
 864 05a4 6F00000A 		j	.L47
 865              	.LVL53:
 866              	.L57:
 867              	.LBE32:
 868              	.LBB36:
 869              	.LBB31:
  27:src/../h/MemoryAllocator.h ****             instance.headFree=(FreeSeg*)HEAP_START_ADDR;
 870              		.loc 2 27 13 is_stmt 1
  27:src/../h/MemoryAllocator.h ****             instance.headFree=(FreeSeg*)HEAP_START_ADDR;
 871              		.loc 2 27 26 is_stmt 0
 872 05a8 97070000 		lla	a5,_ZZN8MemAlloc12getAllocatorEvE8instance
 872      93870700 
 873 05b0 13071000 		li	a4,1
 874 05b4 2384E700 		sb	a4,8(a5)
  28:src/../h/MemoryAllocator.h ****             instance.headFree->next= nullptr;
 875              		.loc 2 28 13 is_stmt 1
  28:src/../h/MemoryAllocator.h ****             instance.headFree->next= nullptr;
 876              		.loc 2 28 30 is_stmt 0
 877 05b8 97060000 		la	a3,HEAP_START_ADDR
 877      83B60600 
 878 05c0 03B70600 		ld	a4,0(a3)
 879 05c4 23B0E700 		sd	a4,0(a5)
  29:src/../h/MemoryAllocator.h ****             instance.headFree->prev= nullptr;
 880              		.loc 2 29 13 is_stmt 1
  29:src/../h/MemoryAllocator.h ****             instance.headFree->prev= nullptr;
 881              		.loc 2 29 36 is_stmt 0
 882 05c8 23340700 		sd	zero,8(a4)
  30:src/../h/MemoryAllocator.h ****             instance.headFree->szBy=(uint64)((uint64*)HEAP_END_ADDR-(uint64*)HEAP_START_ADDR);
 883              		.loc 2 30 13 is_stmt 1
  30:src/../h/MemoryAllocator.h ****             instance.headFree->szBy=(uint64)((uint64*)HEAP_END_ADDR-(uint64*)HEAP_START_ADDR);
 884              		.loc 2 30 36 is_stmt 0
 885 05cc 23300700 		sd	zero,0(a4)
  31:src/../h/MemoryAllocator.h ****             instance.headFree->szBl=bytesToBlocks(instance.headFree->szBy-sizeof(FreeSeg));
 886              		.loc 2 31 13 is_stmt 1
  31:src/../h/MemoryAllocator.h ****             instance.headFree->szBl=bytesToBlocks(instance.headFree->szBy-sizeof(FreeSeg));
 887              		.loc 2 31 46 is_stmt 0
 888 05d0 17070000 		la	a4,HEAP_END_ADDR
 888      03370700 
 889 05d8 03350700 		ld	a0,0(a4)
  31:src/../h/MemoryAllocator.h ****             instance.headFree->szBl=bytesToBlocks(instance.headFree->szBy-sizeof(FreeSeg));
GAS LISTING /tmp/cc3Hxt4P.s 			page 23


 890              		.loc 2 31 69
 891 05dc 03B70600 		ld	a4,0(a3)
  31:src/../h/MemoryAllocator.h ****             instance.headFree->szBl=bytesToBlocks(instance.headFree->szBy-sizeof(FreeSeg));
 892              		.loc 2 31 68
 893 05e0 3305E540 		sub	a0,a0,a4
 894 05e4 13553540 		srai	a0,a0,3
  31:src/../h/MemoryAllocator.h ****             instance.headFree->szBl=bytesToBlocks(instance.headFree->szBy-sizeof(FreeSeg));
 895              		.loc 2 31 22
 896 05e8 03B90700 		ld	s2,0(a5)
  31:src/../h/MemoryAllocator.h ****             instance.headFree->szBl=bytesToBlocks(instance.headFree->szBy-sizeof(FreeSeg));
 897              		.loc 2 31 36
 898 05ec 233CA900 		sd	a0,24(s2)
  32:src/../h/MemoryAllocator.h ****         }
 899              		.loc 2 32 13 is_stmt 1
  32:src/../h/MemoryAllocator.h ****         }
 900              		.loc 2 32 50 is_stmt 0
 901 05f0 130505FE 		addi	a0,a0,-32
 902 05f4 97000000 		call	_ZN8MemAlloc13bytesToBlocksEm@plt
 902      E7800000 
 903              	.LVL54:
  32:src/../h/MemoryAllocator.h ****         }
 904              		.loc 2 32 36
 905 05fc 2338A900 		sd	a0,16(s2)
 906 0600 6FF01FF7 		j	.L48
 907              	.LVL55:
 908              	.L55:
 909              	.LBE31:
 910              	.LBE36:
 911              	.LBB37:
 912              	.LBB33:
 121:src/TCB.cpp   ****     }else{
 122:src/TCB.cpp   ****         BlockedElem* tmp=sleepHead;
 123:src/TCB.cpp   ****         while(t->sleepTime > tmp->thread->sleepTime && tmp->next){
 124:src/TCB.cpp   ****             tmp=tmp->next;
 913              		.loc 1 124 16
 914 0604 93070700 		mv	a5,a4
 915              	.LVL56:
 916              	.L49:
 123:src/TCB.cpp   ****             tmp=tmp->next;
 917              		.loc 1 123 9 is_stmt 1
 123:src/TCB.cpp   ****             tmp=tmp->next;
 918              		.loc 1 123 53
 123:src/TCB.cpp   ****             tmp=tmp->next;
 919              		.loc 1 123 18 is_stmt 0
 920 0608 03B68401 		ld	a2,24(s1)
 123:src/TCB.cpp   ****             tmp=tmp->next;
 921              		.loc 1 123 35
 922 060c 03B70700 		ld	a4,0(a5)
 123:src/TCB.cpp   ****             tmp=tmp->next;
 923              		.loc 1 123 43
 924 0610 83368701 		ld	a3,24(a4)
 123:src/TCB.cpp   ****             tmp=tmp->next;
 925              		.loc 1 123 53
 926 0614 63F6C600 		bleu	a2,a3,.L51
 123:src/TCB.cpp   ****             tmp=tmp->next;
 927              		.loc 1 123 61 discriminator 1
 928 0618 03B78700 		ld	a4,8(a5)
GAS LISTING /tmp/cc3Hxt4P.s 			page 24


 123:src/TCB.cpp   ****             tmp=tmp->next;
 929              		.loc 1 123 53 discriminator 1
 930 061c E31407FE 		bnez	a4,.L55
 931              	.L51:
 125:src/TCB.cpp   ****         }
 126:src/TCB.cpp   ****         if(tmp->next || t->sleepTime < tmp->thread->sleepTime ) {
 932              		.loc 1 126 9 is_stmt 1
 933              		.loc 1 126 17 is_stmt 0
 934 0620 03B78700 		ld	a4,8(a5)
 935              		.loc 1 126 9
 936 0624 630C0702 		beqz	a4,.L58
 937              	.L52:
 127:src/TCB.cpp   ****             newElem->prev = tmp->prev;
 938              		.loc 1 127 13 is_stmt 1
 939              		.loc 1 127 34 is_stmt 0
 940 0628 03B70701 		ld	a4,16(a5)
 941              		.loc 1 127 27
 942 062c 2338E500 		sd	a4,16(a0)
 128:src/TCB.cpp   ****             newElem->next = tmp;
 943              		.loc 1 128 13 is_stmt 1
 944              		.loc 1 128 27 is_stmt 0
 945 0630 2334F500 		sd	a5,8(a0)
 129:src/TCB.cpp   ****             tmp->prev = newElem;
 946              		.loc 1 129 13 is_stmt 1
 947              		.loc 1 129 23 is_stmt 0
 948 0634 23B8A700 		sd	a0,16(a5)
 130:src/TCB.cpp   ****             if (newElem->prev) newElem->prev->next = newElem;
 949              		.loc 1 130 13 is_stmt 1
 950              		.loc 1 130 26 is_stmt 0
 951 0638 83370501 		ld	a5,16(a0)
 952              	.LVL57:
 953              		.loc 1 130 13
 954 063c 638A0702 		beqz	a5,.L54
 955              		.loc 1 130 32 is_stmt 1 discriminator 1
 956              		.loc 1 130 52 is_stmt 0 discriminator 1
 957 0640 23B4A700 		sd	a0,8(a5)
 958              	.L47:
 959              	.LBE33:
 960              	.LBE37:
 131:src/TCB.cpp   ****             else sleepHead=newElem;
 132:src/TCB.cpp   ****         }else{
 133:src/TCB.cpp   ****             newElem->next=tmp->next;
 134:src/TCB.cpp   ****             newElem->prev=tmp;
 135:src/TCB.cpp   ****             tmp->next=newElem;
 136:src/TCB.cpp   ****         } // lista je uredjena po rastucem redosledu spavanja
 137:src/TCB.cpp   ****     }
 138:src/TCB.cpp   **** }
 961              		.loc 1 138 1
 962 0644 83308101 		ld	ra,24(sp)
 963              		.cfi_remember_state
 964              		.cfi_restore 1
 965 0648 03340101 		ld	s0,16(sp)
 966              		.cfi_restore 8
 967              		.cfi_def_cfa 2, 32
 968 064c 83348100 		ld	s1,8(sp)
 969              		.cfi_restore 9
 970              	.LVL58:
GAS LISTING /tmp/cc3Hxt4P.s 			page 25


 971 0650 03390100 		ld	s2,0(sp)
 972              		.cfi_restore 18
 973 0654 13010102 		addi	sp,sp,32
 974              		.cfi_def_cfa_offset 0
 975 0658 67800000 		jr	ra
 976              	.LVL59:
 977              	.L58:
 978              		.cfi_restore_state
 979              	.LBB38:
 980              	.LBB34:
 126:src/TCB.cpp   ****             newElem->prev = tmp->prev;
 981              		.loc 1 126 22 discriminator 1
 982 065c E366D6FC 		bltu	a2,a3,.L52
 133:src/TCB.cpp   ****             newElem->prev=tmp;
 983              		.loc 1 133 13 is_stmt 1
 133:src/TCB.cpp   ****             newElem->prev=tmp;
 984              		.loc 1 133 26 is_stmt 0
 985 0660 2334E500 		sd	a4,8(a0)
 134:src/TCB.cpp   ****             tmp->next=newElem;
 986              		.loc 1 134 13 is_stmt 1
 134:src/TCB.cpp   ****             tmp->next=newElem;
 987              		.loc 1 134 26 is_stmt 0
 988 0664 2338F500 		sd	a5,16(a0)
 135:src/TCB.cpp   ****         } // lista je uredjena po rastucem redosledu spavanja
 989              		.loc 1 135 13 is_stmt 1
 135:src/TCB.cpp   ****         } // lista je uredjena po rastucem redosledu spavanja
 990              		.loc 1 135 22 is_stmt 0
 991 0668 23B4A700 		sd	a0,8(a5)
 992              	.LBE34:
 993              	.LBE38:
 994              		.loc 1 138 1
 995 066c 6FF09FFD 		j	.L47
 996              	.LVL60:
 997              	.L54:
 998              	.LBB39:
 999              	.LBB35:
 131:src/TCB.cpp   ****         }else{
 1000              		.loc 1 131 18 is_stmt 1
 131:src/TCB.cpp   ****         }else{
 1001              		.loc 1 131 27 is_stmt 0
 1002 0670 97070000 		sd	a0,.LANCHOR0+8,a5
 1002      23B0A700 
 1003 0678 6FF0DFFC 		j	.L47
 1004              	.LBE35:
 1005              	.LBE39:
 1006              		.cfi_endproc
 1007              	.LFE30:
 1009              		.align	2
 1010              		.globl	_ZN3TCB11_time_sleepEm
 1012              	_ZN3TCB11_time_sleepEm:
 1013              	.LFB31:
 139:src/TCB.cpp   **** 
 140:src/TCB.cpp   **** int TCB::_time_sleep(time_t time) {
 1014              		.loc 1 140 35 is_stmt 1
 1015              		.cfi_startproc
 1016              	.LVL61:
 141:src/TCB.cpp   ****     if(time==0) return 0;
GAS LISTING /tmp/cc3Hxt4P.s 			page 26


 1017              		.loc 1 141 5
 1018 067c 63160500 		bnez	a0,.L65
 142:src/TCB.cpp   ****     TCB::running->sleepTime=time;
 143:src/TCB.cpp   ****     addSleepedElem(TCB::running);
 144:src/TCB.cpp   ****     _thread_dispatch();
 145:src/TCB.cpp   ****     return 0;
 146:src/TCB.cpp   **** }
 1019              		.loc 1 146 1 is_stmt 0
 1020 0680 13050000 		li	a0,0
 1021              	.LVL62:
 1022 0684 67800000 		ret
 1023              	.LVL63:
 1024              	.L65:
 140:src/TCB.cpp   ****     if(time==0) return 0;
 1025              		.loc 1 140 35
 1026 0688 130101FF 		addi	sp,sp,-16
 1027              		.cfi_def_cfa_offset 16
 1028 068c 23341100 		sd	ra,8(sp)
 1029 0690 23308100 		sd	s0,0(sp)
 1030              		.cfi_offset 1, -8
 1031              		.cfi_offset 8, -16
 1032 0694 13040101 		addi	s0,sp,16
 1033              		.cfi_def_cfa 8, 0
 1034 0698 93070500 		mv	a5,a0
 142:src/TCB.cpp   ****     TCB::running->sleepTime=time;
 1035              		.loc 1 142 5 is_stmt 1
 142:src/TCB.cpp   ****     TCB::running->sleepTime=time;
 1036              		.loc 1 142 19 is_stmt 0
 1037 069c 17050000 		ld	a0,.LANCHOR0
 1037      03350500 
 1038              	.LVL64:
 142:src/TCB.cpp   ****     TCB::running->sleepTime=time;
 1039              		.loc 1 142 28
 1040 06a4 233CF500 		sd	a5,24(a0)
 143:src/TCB.cpp   ****     _thread_dispatch();
 1041              		.loc 1 143 5 is_stmt 1
 143:src/TCB.cpp   ****     _thread_dispatch();
 1042              		.loc 1 143 19 is_stmt 0
 1043 06a8 97000000 		call	_ZN3TCB14addSleepedElemEPS_
 1043      E7800000 
 1044              	.LVL65:
 144:src/TCB.cpp   ****     return 0;
 1045              		.loc 1 144 5 is_stmt 1
 144:src/TCB.cpp   ****     return 0;
 1046              		.loc 1 144 21 is_stmt 0
 1047 06b0 97000000 		call	_ZN3TCB16_thread_dispatchEv
 1047      E7800000 
 1048              	.LVL66:
 145:src/TCB.cpp   **** }
 1049              		.loc 1 145 5 is_stmt 1
 1050              		.loc 1 146 1 is_stmt 0
 1051 06b8 13050000 		li	a0,0
 1052 06bc 83308100 		ld	ra,8(sp)
 1053              		.cfi_restore 1
 1054 06c0 03340100 		ld	s0,0(sp)
 1055              		.cfi_restore 8
 1056              		.cfi_def_cfa 2, 16
GAS LISTING /tmp/cc3Hxt4P.s 			page 27


 1057 06c4 13010101 		addi	sp,sp,16
 1058              		.cfi_def_cfa_offset 0
 1059 06c8 67800000 		jr	ra
 1060              		.cfi_endproc
 1061              	.LFE31:
 1063              		.align	2
 1064              		.globl	_ZN3TCB24removeElemsFromSleepListEv
 1066              	_ZN3TCB24removeElemsFromSleepListEv:
 1067              	.LFB32:
 147:src/TCB.cpp   **** 
 148:src/TCB.cpp   **** void TCB::removeElemsFromSleepList() {
 1068              		.loc 1 148 38 is_stmt 1
 1069              		.cfi_startproc
 149:src/TCB.cpp   ****     while(sleepHead && sleepHead->thread->getSleepTime()==0){
 1070              		.loc 1 149 5
 1071              		.loc 1 149 21
 1072              		.loc 1 149 59 is_stmt 0
 1073 06cc 97070000 		ld	a5,.LANCHOR0+8
 1073      83B70700 
 1074              		.loc 1 149 21
 1075 06d4 638E070E 		beqz	a5,.L74
 1076              		.loc 1 149 35
 1077 06d8 03B50700 		ld	a0,0(a5)
 1078              	.LVL67:
 1079              	.LBB45:
 1080              	.LBB46:
 1081              		.file 3 "src/../h/TCB.h"
   1:src/../h/TCB.h **** //
   2:src/../h/TCB.h **** // Created by os on 8/6/23.
   3:src/../h/TCB.h **** //
   4:src/../h/TCB.h **** 
   5:src/../h/TCB.h **** #ifndef PROJECT_BASE_V1_1_TCB_H
   6:src/../h/TCB.h **** #define PROJECT_BASE_V1_1_TCB_H
   7:src/../h/TCB.h **** #include "../lib/hw.h"
   8:src/../h/TCB.h **** #include "RiscVReg.h"
   9:src/../h/TCB.h **** 
  10:src/../h/TCB.h **** class TCB;
  11:src/../h/TCB.h **** 
  12:src/../h/TCB.h **** struct BlockedElem{
  13:src/../h/TCB.h ****     TCB* thread;
  14:src/../h/TCB.h ****     BlockedElem* next;
  15:src/../h/TCB.h ****     BlockedElem* prev;
  16:src/../h/TCB.h ****     BlockedElem(TCB* t):thread(t),next(nullptr),prev(nullptr){}
  17:src/../h/TCB.h **** };
  18:src/../h/TCB.h **** 
  19:src/../h/TCB.h **** class TCB {
  20:src/../h/TCB.h ****     struct Context{
  21:src/../h/TCB.h ****         uint64 ra; //dokle se stiglo sa izvrsavanjem tela funkcije
  22:src/../h/TCB.h ****         uint64 sp;
  23:src/../h/TCB.h ****     };
  24:src/../h/TCB.h ****     Context context;
  25:src/../h/TCB.h ****     size_t timeSlice=DEFAULT_TIME_SLICE;
  26:src/../h/TCB.h ****     size_t sleepTime=0;
  27:src/../h/TCB.h ****     uint64 * stack;
  28:src/../h/TCB.h ****     void(* job)(void*);
  29:src/../h/TCB.h ****     void* arg;
  30:src/../h/TCB.h ****     bool finished=false;
GAS LISTING /tmp/cc3Hxt4P.s 			page 28


  31:src/../h/TCB.h ****     bool blocked=false;
  32:src/../h/TCB.h ****     BlockedElem* blockedHead=nullptr;
  33:src/../h/TCB.h ****     void addBlockedElem(TCB* t);
  34:src/../h/TCB.h ****     static void addSleepedElem(TCB *t);
  35:src/../h/TCB.h ****     TCB(void (*start_routine)(void *), void *arg, void* stack);
  36:src/../h/TCB.h ****     static void contextSwitch(Context* a,Context* b);
  37:src/../h/TCB.h ****     static void wrapper();
  38:src/../h/TCB.h **** public:
  39:src/../h/TCB.h ****     static uint64 timeSliceCnt; // koliko se tekuca nit vec izvrsava
  40:src/../h/TCB.h ****     static TCB* running;
  41:src/../h/TCB.h ****     void setBlocked(bool b) {blocked=b;}
  42:src/../h/TCB.h ****     static int _thread_create(TCB** instance,void(* start_routine)(void*),void* arg,void* stack);
  43:src/../h/TCB.h ****     static int _thread_exit();
  44:src/../h/TCB.h ****     static void _thread_dispatch();
  45:src/../h/TCB.h ****     static void _thread_join(TCB* handle);
  46:src/../h/TCB.h ****     static int _time_sleep(time_t time);
  47:src/../h/TCB.h ****     static void setTimeSlice(TCB* handle,size_t time) {handle->timeSlice=time;}
  48:src/../h/TCB.h ****     size_t getTimeSlice() const {return timeSlice;}
  49:src/../h/TCB.h ****     //~TCB(){if(stack) delete stack;}
  50:src/../h/TCB.h **** 
  51:src/../h/TCB.h ****     static BlockedElem* sleepHead;
  52:src/../h/TCB.h ****     void decSleepTime(){sleepTime--;}
  53:src/../h/TCB.h ****     size_t getSleepTime(){return sleepTime;}
 1082              		.loc 3 53 27 is_stmt 1
 1083              		.loc 3 53 34 is_stmt 0
 1084 06dc 83378501 		ld	a5,24(a0)
 1085              	.LVL68:
 1086              	.LBE46:
 1087              	.LBE45:
 1088              		.loc 1 149 21
 1089 06e0 6398070E 		bnez	a5,.L74
 148:src/TCB.cpp   ****     while(sleepHead && sleepHead->thread->getSleepTime()==0){
 1090              		.loc 1 148 38
 1091 06e4 130101FE 		addi	sp,sp,-32
 1092              		.cfi_def_cfa_offset 32
 1093 06e8 233C1100 		sd	ra,24(sp)
 1094 06ec 23388100 		sd	s0,16(sp)
 1095 06f0 23349100 		sd	s1,8(sp)
 1096 06f4 23302101 		sd	s2,0(sp)
 1097              		.cfi_offset 1, -8
 1098              		.cfi_offset 8, -16
 1099              		.cfi_offset 9, -24
 1100              		.cfi_offset 18, -32
 1101 06f8 13040102 		addi	s0,sp,32
 1102              		.cfi_def_cfa 8, 0
 1103 06fc 6F008008 		j	.L75
 1104              	.LVL69:
 1105              	.L78:
 1106              	.LBB48:
 1107              	.LBB49:
 1108              	.LBB50:
  27:src/../h/MemoryAllocator.h ****             instance.headFree=(FreeSeg*)HEAP_START_ADDR;
 1109              		.loc 2 27 13 is_stmt 1
  27:src/../h/MemoryAllocator.h ****             instance.headFree=(FreeSeg*)HEAP_START_ADDR;
 1110              		.loc 2 27 26 is_stmt 0
 1111 0700 97070000 		lla	a5,_ZZN8MemAlloc12getAllocatorEvE8instance
 1111      93870700 
GAS LISTING /tmp/cc3Hxt4P.s 			page 29


 1112 0708 13071000 		li	a4,1
 1113 070c 2384E700 		sb	a4,8(a5)
  28:src/../h/MemoryAllocator.h ****             instance.headFree->next= nullptr;
 1114              		.loc 2 28 13 is_stmt 1
  28:src/../h/MemoryAllocator.h ****             instance.headFree->next= nullptr;
 1115              		.loc 2 28 30 is_stmt 0
 1116 0710 97060000 		la	a3,HEAP_START_ADDR
 1116      83B60600 
 1117 0718 03B70600 		ld	a4,0(a3)
 1118 071c 23B0E700 		sd	a4,0(a5)
  29:src/../h/MemoryAllocator.h ****             instance.headFree->prev= nullptr;
 1119              		.loc 2 29 13 is_stmt 1
  29:src/../h/MemoryAllocator.h ****             instance.headFree->prev= nullptr;
 1120              		.loc 2 29 36 is_stmt 0
 1121 0720 23340700 		sd	zero,8(a4)
  30:src/../h/MemoryAllocator.h ****             instance.headFree->szBy=(uint64)((uint64*)HEAP_END_ADDR-(uint64*)HEAP_START_ADDR);
 1122              		.loc 2 30 13 is_stmt 1
  30:src/../h/MemoryAllocator.h ****             instance.headFree->szBy=(uint64)((uint64*)HEAP_END_ADDR-(uint64*)HEAP_START_ADDR);
 1123              		.loc 2 30 36 is_stmt 0
 1124 0724 23300700 		sd	zero,0(a4)
  31:src/../h/MemoryAllocator.h ****             instance.headFree->szBl=bytesToBlocks(instance.headFree->szBy-sizeof(FreeSeg));
 1125              		.loc 2 31 13 is_stmt 1
  31:src/../h/MemoryAllocator.h ****             instance.headFree->szBl=bytesToBlocks(instance.headFree->szBy-sizeof(FreeSeg));
 1126              		.loc 2 31 46 is_stmt 0
 1127 0728 17070000 		la	a4,HEAP_END_ADDR
 1127      03370700 
 1128 0730 03350700 		ld	a0,0(a4)
  31:src/../h/MemoryAllocator.h ****             instance.headFree->szBl=bytesToBlocks(instance.headFree->szBy-sizeof(FreeSeg));
 1129              		.loc 2 31 69
 1130 0734 03B70600 		ld	a4,0(a3)
  31:src/../h/MemoryAllocator.h ****             instance.headFree->szBl=bytesToBlocks(instance.headFree->szBy-sizeof(FreeSeg));
 1131              		.loc 2 31 68
 1132 0738 3305E540 		sub	a0,a0,a4
 1133 073c 13553540 		srai	a0,a0,3
  31:src/../h/MemoryAllocator.h ****             instance.headFree->szBl=bytesToBlocks(instance.headFree->szBy-sizeof(FreeSeg));
 1134              		.loc 2 31 22
 1135 0740 03B90700 		ld	s2,0(a5)
  31:src/../h/MemoryAllocator.h ****             instance.headFree->szBl=bytesToBlocks(instance.headFree->szBy-sizeof(FreeSeg));
 1136              		.loc 2 31 36
 1137 0744 233CA900 		sd	a0,24(s2)
  32:src/../h/MemoryAllocator.h ****         }
 1138              		.loc 2 32 13 is_stmt 1
  32:src/../h/MemoryAllocator.h ****         }
 1139              		.loc 2 32 50 is_stmt 0
 1140 0748 130505FE 		addi	a0,a0,-32
 1141 074c 97000000 		call	_ZN8MemAlloc13bytesToBlocksEm@plt
 1141      E7800000 
 1142              	.LVL70:
  32:src/../h/MemoryAllocator.h ****         }
 1143              		.loc 2 32 36
 1144 0754 2338A900 		sd	a0,16(s2)
 1145              	.L70:
 1146              		.loc 2 34 9 is_stmt 1
 1147              	.LBE50:
 1148              	.LBE49:
 150:src/TCB.cpp   ****         Scheduler::put(sleepHead->thread);
 151:src/TCB.cpp   ****         BlockedElem* old=sleepHead;
GAS LISTING /tmp/cc3Hxt4P.s 			page 30


 152:src/TCB.cpp   ****         sleepHead=sleepHead->next;
 153:src/TCB.cpp   ****         if(sleepHead) sleepHead->prev= nullptr;
 154:src/TCB.cpp   ****         MemAlloc::getAllocator().mem_free(old);
 1149              		.loc 1 154 42 is_stmt 0
 1150 0758 93850400 		mv	a1,s1
 1151 075c 17050000 		lla	a0,_ZZN8MemAlloc12getAllocatorEvE8instance
 1151      13050500 
 1152 0764 97000000 		call	_ZN8MemAlloc8mem_freeEPv@plt
 1152      E7800000 
 1153              	.LVL71:
 1154              	.LBE48:
 149:src/TCB.cpp   ****         Scheduler::put(sleepHead->thread);
 1155              		.loc 1 149 5 is_stmt 1
 149:src/TCB.cpp   ****         Scheduler::put(sleepHead->thread);
 1156              		.loc 1 149 21
 149:src/TCB.cpp   ****         Scheduler::put(sleepHead->thread);
 1157              		.loc 1 149 59 is_stmt 0
 1158 076c 97070000 		ld	a5,.LANCHOR0+8
 1158      83B70700 
 149:src/TCB.cpp   ****         Scheduler::put(sleepHead->thread);
 1159              		.loc 1 149 21
 1160 0774 63820704 		beqz	a5,.L66
 149:src/TCB.cpp   ****         Scheduler::put(sleepHead->thread);
 1161              		.loc 1 149 35 discriminator 1
 1162 0778 03B50700 		ld	a0,0(a5)
 1163              	.LVL72:
 1164              	.LBB53:
 1165              	.LBB47:
 1166              		.loc 3 53 27 is_stmt 1 discriminator 1
 1167              		.loc 3 53 34 is_stmt 0 discriminator 1
 1168 077c 83378501 		ld	a5,24(a0)
 1169              	.LVL73:
 1170              	.LBE47:
 1171              	.LBE53:
 149:src/TCB.cpp   ****         Scheduler::put(sleepHead->thread);
 1172              		.loc 1 149 21 discriminator 1
 1173 0780 639C0702 		bnez	a5,.L66
 1174              	.LVL74:
 1175              	.L75:
 1176              	.LBB54:
 150:src/TCB.cpp   ****         Scheduler::put(sleepHead->thread);
 1177              		.loc 1 150 9 is_stmt 1
 150:src/TCB.cpp   ****         Scheduler::put(sleepHead->thread);
 1178              		.loc 1 150 23 is_stmt 0
 1179 0784 97000000 		call	_ZN9Scheduler3putEP3TCB@plt
 1179      E7800000 
 1180              	.LVL75:
 151:src/TCB.cpp   ****         sleepHead=sleepHead->next;
 1181              		.loc 1 151 9 is_stmt 1
 151:src/TCB.cpp   ****         sleepHead=sleepHead->next;
 1182              		.loc 1 151 22 is_stmt 0
 1183 078c 17070000 		lla	a4,.LANCHOR0
 1183      13070700 
 1184 0794 83348700 		ld	s1,8(a4)
 1185              	.LVL76:
 152:src/TCB.cpp   ****         if(sleepHead) sleepHead->prev= nullptr;
 1186              		.loc 1 152 9 is_stmt 1
GAS LISTING /tmp/cc3Hxt4P.s 			page 31


 152:src/TCB.cpp   ****         if(sleepHead) sleepHead->prev= nullptr;
 1187              		.loc 1 152 30 is_stmt 0
 1188 0798 83B78400 		ld	a5,8(s1)
 152:src/TCB.cpp   ****         if(sleepHead) sleepHead->prev= nullptr;
 1189              		.loc 1 152 18
 1190 079c 2334F700 		sd	a5,8(a4)
 153:src/TCB.cpp   ****         MemAlloc::getAllocator().mem_free(old);
 1191              		.loc 1 153 9 is_stmt 1
 1192 07a0 63840700 		beqz	a5,.L69
 153:src/TCB.cpp   ****         MemAlloc::getAllocator().mem_free(old);
 1193              		.loc 1 153 23 discriminator 1
 153:src/TCB.cpp   ****         MemAlloc::getAllocator().mem_free(old);
 1194              		.loc 1 153 38 is_stmt 0 discriminator 1
 1195 07a4 23B80700 		sd	zero,16(a5)
 1196              	.L69:
 1197              		.loc 1 154 9 is_stmt 1
 1198              	.LBB52:
 1199              	.LBB51:
  25:src/../h/MemoryAllocator.h ****         if(!instance.flag){
 1200              		.loc 2 25 9
  26:src/../h/MemoryAllocator.h ****             instance.flag=true;
 1201              		.loc 2 26 9
  26:src/../h/MemoryAllocator.h ****             instance.flag=true;
 1202              		.loc 2 26 22 is_stmt 0
 1203 07a8 97070000 		lbu	a5,_ZZN8MemAlloc12getAllocatorEvE8instance+8
 1203      83C70700 
  26:src/../h/MemoryAllocator.h ****             instance.flag=true;
 1204              		.loc 2 26 9
 1205 07b0 E39407FA 		bnez	a5,.L70
 1206 07b4 6FF0DFF4 		j	.L78
 1207              	.L66:
 1208              	.LBE51:
 1209              	.LBE52:
 1210              	.LBE54:
 155:src/TCB.cpp   ****     }
 156:src/TCB.cpp   **** }
 1211              		.loc 1 156 1
 1212 07b8 83308101 		ld	ra,24(sp)
 1213              		.cfi_restore 1
 1214 07bc 03340101 		ld	s0,16(sp)
 1215              		.cfi_restore 8
 1216              		.cfi_def_cfa 2, 32
 1217 07c0 83348100 		ld	s1,8(sp)
 1218              		.cfi_restore 9
 1219              	.LVL77:
 1220 07c4 03390100 		ld	s2,0(sp)
 1221              		.cfi_restore 18
 1222 07c8 13010102 		addi	sp,sp,32
 1223              		.cfi_def_cfa_offset 0
 1224 07cc 67800000 		jr	ra
 1225              	.L74:
 1226 07d0 67800000 		ret
 1227              		.cfi_endproc
 1228              	.LFE32:
 1230              		.globl	_ZN3TCB9sleepHeadE
 1231              		.globl	_ZN3TCB12timeSliceCntE
 1232              		.globl	_ZN3TCB7runningE
GAS LISTING /tmp/cc3Hxt4P.s 			page 32


 1233              		.weak	_ZZN8MemAlloc12getAllocatorEvE8instance
 1234              		.section	.bss._ZZN8MemAlloc12getAllocatorEvE8instance,"awG",@nobits,_ZZN8MemAlloc12getAllocatorEvE
 1235              		.align	3
 1238              	_ZZN8MemAlloc12getAllocatorEvE8instance:
 1239 0000 00000000 		.zero	16
 1239      00000000 
 1239      00000000 
 1239      00000000 
 1240              		.bss
 1241              		.align	3
 1242              		.set	.LANCHOR0,. + 0
 1245              	_ZN3TCB7runningE:
 1246 0000 00000000 		.zero	8
 1246      00000000 
 1249              	_ZN3TCB9sleepHeadE:
 1250 0008 00000000 		.zero	8
 1250      00000000 
 1253              	_ZN3TCB12timeSliceCntE:
 1254 0010 00000000 		.zero	8
 1254      00000000 
 1255              		.text
 1256              	.Letext0:
 1257              		.file 4 "src/../h/../lib/hw.h"
 1258              		.file 5 "src/../h/Scheduler.h"
 1259              		.file 6 "src/../h/Con.h"
 1260              		.file 7 "src/../h/RiscVReg.h"
 1261              		.file 8 "src/../h/syscall_c.hpp"
GAS LISTING /tmp/cc3Hxt4P.s 			page 33

