GAS LISTING /tmp/ccRkRhST.s 			page 1


   1              		.file	"ThreadSleep_C_API_test.cpp"
   2              		.option pic
   3              		.option norelax
   4              		.text
   5              	.Ltext0:
   6              		.section	.rodata.str1.8,"aMS",@progbits,1
   7              		.align	3
   8              	.LC0:
   9 0000 48656C6C 		.string	"Hello "
   9      6F2000
  10 0007 00       		.align	3
  11              	.LC1:
  12 0008 20210A00 		.string	" !\n"
  13              		.text
  14              		.align	2
  16              	_ZL9sleepyRunPv:
  17              	.LFB19:
  18              		.file 1 "test/ThreadSleep_C_API_test.cpp"
   1:test/ThreadSleep_C_API_test.cpp **** #include "../h/syscall_c.hpp"
   2:test/ThreadSleep_C_API_test.cpp **** 
   3:test/ThreadSleep_C_API_test.cpp **** #include "../h/printing.hpp"
   4:test/ThreadSleep_C_API_test.cpp **** 
   5:test/ThreadSleep_C_API_test.cpp **** static volatile bool finished[2];
   6:test/ThreadSleep_C_API_test.cpp **** 
   7:test/ThreadSleep_C_API_test.cpp **** static void sleepyRun(void *arg) {
  19              		.loc 1 7 34
  20              		.cfi_startproc
  21              	.LVL0:
  22 0000 130101FE 		addi	sp,sp,-32
  23              		.cfi_def_cfa_offset 32
  24 0004 233C1100 		sd	ra,24(sp)
  25 0008 23388100 		sd	s0,16(sp)
  26 000c 23349100 		sd	s1,8(sp)
  27 0010 23302101 		sd	s2,0(sp)
  28              		.cfi_offset 1, -8
  29              		.cfi_offset 8, -16
  30              		.cfi_offset 9, -24
  31              		.cfi_offset 18, -32
  32 0014 13040102 		addi	s0,sp,32
  33              		.cfi_def_cfa 8, 0
   8:test/ThreadSleep_C_API_test.cpp ****     time_t sleep_time = *((time_t *) arg);
  34              		.loc 1 8 5
  35              		.loc 1 8 12 is_stmt 0
  36 0018 03390500 		ld	s2,0(a0)
  37              	.LVL1:
   9:test/ThreadSleep_C_API_test.cpp ****     int i = 6;
  38              		.loc 1 9 5 is_stmt 1
  39              		.loc 1 9 9 is_stmt 0
  40 001c 93046000 		li	s1,6
  41              	.LVL2:
  42              	.L3:
  10:test/ThreadSleep_C_API_test.cpp ****     while (--i > 0) {
  43              		.loc 1 10 5 is_stmt 1
  44              		.loc 1 10 16
  45 0020 9B84F4FF 		addiw	s1,s1,-1
  46              	.LVL3:
  47 0024 63549004 		blez	s1,.L2
GAS LISTING /tmp/ccRkRhST.s 			page 2


  11:test/ThreadSleep_C_API_test.cpp **** 
  12:test/ThreadSleep_C_API_test.cpp ****         printString("Hello ");
  48              		.loc 1 12 9
  49              		.loc 1 12 20 is_stmt 0
  50 0028 17050000 		lla	a0,.LC0
  50      13050500 
  51 0030 97000000 		call	_Z11printStringPKc@plt
  51      E7800000 
  52              	.LVL4:
  13:test/ThreadSleep_C_API_test.cpp ****         printInt(sleep_time);
  53              		.loc 1 13 9 is_stmt 1
  54              		.loc 1 13 17 is_stmt 0
  55 0038 13060000 		li	a2,0
  56 003c 9305A000 		li	a1,10
  57 0040 1B050900 		sext.w	a0,s2
  58 0044 97000000 		call	_Z8printIntiii@plt
  58      E7800000 
  59              	.LVL5:
  14:test/ThreadSleep_C_API_test.cpp ****         printString(" !\n");
  60              		.loc 1 14 9 is_stmt 1
  61              		.loc 1 14 20 is_stmt 0
  62 004c 17050000 		lla	a0,.LC1
  62      13050500 
  63 0054 97000000 		call	_Z11printStringPKc@plt
  63      E7800000 
  64              	.LVL6:
  15:test/ThreadSleep_C_API_test.cpp ****         time_sleep(sleep_time);
  65              		.loc 1 15 9 is_stmt 1
  66              		.loc 1 15 19 is_stmt 0
  67 005c 13050900 		mv	a0,s2
  68 0060 97000000 		call	_Z10time_sleepm@plt
  68      E7800000 
  69              	.LVL7:
  10:test/ThreadSleep_C_API_test.cpp **** 
  70              		.loc 1 10 5
  71 0068 6FF09FFB 		j	.L3
  72              	.L2:
  16:test/ThreadSleep_C_API_test.cpp ****     }
  17:test/ThreadSleep_C_API_test.cpp ****     finished[sleep_time/10-1] = true;
  73              		.loc 1 17 5 is_stmt 1
  74              		.loc 1 17 24 is_stmt 0
  75 006c 9307A000 		li	a5,10
  76 0070 3359F902 		divu	s2,s2,a5
  77              	.LVL8:
  78              		.loc 1 17 27
  79 0074 1309F9FF 		addi	s2,s2,-1
  80              		.loc 1 17 31
  81 0078 97070000 		lla	a5,.LANCHOR0
  81      93870700 
  82 0080 33892701 		add	s2,a5,s2
  83 0084 93071000 		li	a5,1
  84 0088 2300F900 		sb	a5,0(s2)
  18:test/ThreadSleep_C_API_test.cpp **** }
  85              		.loc 1 18 1
  86 008c 83308101 		ld	ra,24(sp)
  87              		.cfi_restore 1
  88 0090 03340101 		ld	s0,16(sp)
GAS LISTING /tmp/ccRkRhST.s 			page 3


  89              		.cfi_restore 8
  90              		.cfi_def_cfa 2, 32
  91 0094 83348100 		ld	s1,8(sp)
  92              		.cfi_restore 9
  93 0098 03390100 		ld	s2,0(sp)
  94              		.cfi_restore 18
  95 009c 13010102 		addi	sp,sp,32
  96              		.cfi_def_cfa_offset 0
  97 00a0 67800000 		jr	ra
  98              		.cfi_endproc
  99              	.LFE19:
 101              		.align	2
 102              		.globl	_Z12testSleepingv
 104              	_Z12testSleepingv:
 105              	.LFB20:
  19:test/ThreadSleep_C_API_test.cpp **** 
  20:test/ThreadSleep_C_API_test.cpp **** void testSleeping() {
 106              		.loc 1 20 21 is_stmt 1
 107              		.cfi_startproc
 108 00a4 130101FC 		addi	sp,sp,-64
 109              		.cfi_def_cfa_offset 64
 110 00a8 233C1102 		sd	ra,56(sp)
 111 00ac 23388102 		sd	s0,48(sp)
 112 00b0 23349102 		sd	s1,40(sp)
 113              		.cfi_offset 1, -8
 114              		.cfi_offset 8, -16
 115              		.cfi_offset 9, -24
 116 00b4 13040104 		addi	s0,sp,64
 117              		.cfi_def_cfa 8, 0
  21:test/ThreadSleep_C_API_test.cpp ****     const int sleepy_thread_count = 2;
 118              		.loc 1 21 5
 119              	.LVL9:
  22:test/ThreadSleep_C_API_test.cpp ****     time_t sleep_times[sleepy_thread_count] = {10, 20};
 120              		.loc 1 22 5
 121              		.loc 1 22 12 is_stmt 0
 122 00b8 9307A000 		li	a5,10
 123 00bc 2338F4FC 		sd	a5,-48(s0)
 124 00c0 93074001 		li	a5,20
 125 00c4 233CF4FC 		sd	a5,-40(s0)
  23:test/ThreadSleep_C_API_test.cpp ****     thread_t sleepyThread[sleepy_thread_count];
 126              		.loc 1 23 5 is_stmt 1
  24:test/ThreadSleep_C_API_test.cpp **** 
  25:test/ThreadSleep_C_API_test.cpp ****     for (int i = 0; i < sleepy_thread_count; i++) {
 127              		.loc 1 25 5
 128              	.LVL10:
 129              	.LBB2:
 130              		.loc 1 25 14 is_stmt 0
 131 00c8 93040000 		li	s1,0
 132 00cc 6F00C002 		j	.L7
 133              	.LVL11:
 134              	.L10:
  26:test/ThreadSleep_C_API_test.cpp ****         thread_create(&sleepyThread[i], sleepyRun, sleep_times + i);
 135              		.loc 1 26 9 is_stmt 1
 136              		.loc 1 26 64 is_stmt 0
 137 00d0 93973400 		slli	a5,s1,3
 138              		.loc 1 26 22
 139 00d4 130604FD 		addi	a2,s0,-48
GAS LISTING /tmp/ccRkRhST.s 			page 4


 140 00d8 3306F600 		add	a2,a2,a5
 141 00dc 97050000 		lla	a1,_ZL9sleepyRunPv
 141      93850500 
 142 00e4 130504FC 		addi	a0,s0,-64
 143 00e8 3305F500 		add	a0,a0,a5
 144 00ec 97000000 		call	_Z13thread_createPP3TCBPFvPvES2_@plt
 144      E7800000 
 145              	.LVL12:
  25:test/ThreadSleep_C_API_test.cpp ****         thread_create(&sleepyThread[i], sleepyRun, sleep_times + i);
 146              		.loc 1 25 5 is_stmt 1
 147 00f4 9B841400 		addiw	s1,s1,1
 148              	.LVL13:
 149              	.L7:
  25:test/ThreadSleep_C_API_test.cpp ****         thread_create(&sleepyThread[i], sleepyRun, sleep_times + i);
 150              		.loc 1 25 23 discriminator 1
 151 00f8 93071000 		li	a5,1
 152 00fc E3DA97FC 		ble	s1,a5,.L10
 153              	.L8:
 154              	.LBE2:
  27:test/ThreadSleep_C_API_test.cpp ****     }
  28:test/ThreadSleep_C_API_test.cpp **** 
  29:test/ThreadSleep_C_API_test.cpp ****     while (!(finished[0] && finished[1])) {}
 155              		.loc 1 29 5
 156              		.loc 1 29 12
 157              		.loc 1 29 24 is_stmt 0
 158 0100 97070000 		lbu	a5,.LANCHOR0
 158      83C70700 
 159              		.loc 1 29 12
 160 0108 E38C07FE 		beqz	a5,.L8
 161              		.loc 1 29 39 discriminator 2
 162 010c 97070000 		lbu	a5,.LANCHOR0+1
 162      83C70700 
 163              		.loc 1 29 12 discriminator 2
 164 0114 E38607FE 		beqz	a5,.L8
  30:test/ThreadSleep_C_API_test.cpp ****     return;
  31:test/ThreadSleep_C_API_test.cpp **** }
 165              		.loc 1 31 1
 166 0118 83308103 		ld	ra,56(sp)
 167              		.cfi_restore 1
 168 011c 03340103 		ld	s0,48(sp)
 169              		.cfi_restore 8
 170              		.cfi_def_cfa 2, 64
 171 0120 83348102 		ld	s1,40(sp)
 172              		.cfi_restore 9
 173              	.LVL14:
 174 0124 13010104 		addi	sp,sp,64
 175              		.cfi_def_cfa_offset 0
 176 0128 67800000 		jr	ra
 177              		.cfi_endproc
 178              	.LFE20:
 180              		.bss
 181              		.align	3
 182              		.set	.LANCHOR0,. + 0
 185              	_ZL8finished:
 186 0000 0000     		.zero	2
 187              		.text
 188              	.Letext0:
GAS LISTING /tmp/ccRkRhST.s 			page 5


 189              		.file 2 "test/../h/../lib/hw.h"
 190              		.file 3 "test/../h/Con.h"
 191              		.file 4 "test/../h/TCB.h"
 192              		.file 5 "test/../h/syscall_c.hpp"
 193              		.file 6 "test/../h/printing.hpp"
GAS LISTING /tmp/ccRkRhST.s 			page 6


DEFINED SYMBOLS
                            *ABS*:0000000000000000 ThreadSleep_C_API_test.cpp
     /tmp/ccRkRhST.s:16     .text:0000000000000000 _ZL9sleepyRunPv
     /tmp/ccRkRhST.s:20     .text:0000000000000000 .L0 
     /tmp/ccRkRhST.s:22     .text:0000000000000000 .L0 
     /tmp/ccRkRhST.s:23     .text:0000000000000004 .L0 
     /tmp/ccRkRhST.s:28     .text:0000000000000014 .L0 
     /tmp/ccRkRhST.s:29     .text:0000000000000014 .L0 
     /tmp/ccRkRhST.s:30     .text:0000000000000014 .L0 
     /tmp/ccRkRhST.s:31     .text:0000000000000014 .L0 
     /tmp/ccRkRhST.s:33     .text:0000000000000018 .L0 
     /tmp/ccRkRhST.s:35     .text:0000000000000018 .L0 
     /tmp/ccRkRhST.s:36     .text:0000000000000018 .L0 
     /tmp/ccRkRhST.s:39     .text:000000000000001c .L0 
     /tmp/ccRkRhST.s:40     .text:000000000000001c .L0 
     /tmp/ccRkRhST.s:44     .text:0000000000000020 .L0 
     /tmp/ccRkRhST.s:45     .text:0000000000000020 .L0 
     /tmp/ccRkRhST.s:49     .text:0000000000000028 .L0 
     /tmp/ccRkRhST.s:50     .text:0000000000000028 .L0 
     /tmp/ccRkRhST.s:54     .text:0000000000000038 .L0 
     /tmp/ccRkRhST.s:55     .text:0000000000000038 .L0 
     /tmp/ccRkRhST.s:61     .text:000000000000004c .L0 
     /tmp/ccRkRhST.s:62     .text:000000000000004c .L0 
     /tmp/ccRkRhST.s:66     .text:000000000000005c .L0 
     /tmp/ccRkRhST.s:67     .text:000000000000005c .L0 
     /tmp/ccRkRhST.s:71     .text:0000000000000068 .L0 
     /tmp/ccRkRhST.s:74     .text:000000000000006c .L0 
     /tmp/ccRkRhST.s:75     .text:000000000000006c .L0 
     /tmp/ccRkRhST.s:79     .text:0000000000000074 .L0 
     /tmp/ccRkRhST.s:81     .text:0000000000000078 .L0 
     /tmp/ccRkRhST.s:86     .text:000000000000008c .L0 
     /tmp/ccRkRhST.s:87     .text:0000000000000090 .L0 
     /tmp/ccRkRhST.s:89     .text:0000000000000094 .L0 
     /tmp/ccRkRhST.s:90     .text:0000000000000094 .L0 
     /tmp/ccRkRhST.s:92     .text:0000000000000098 .L0 
     /tmp/ccRkRhST.s:94     .text:000000000000009c .L0 
     /tmp/ccRkRhST.s:96     .text:00000000000000a0 .L0 
     /tmp/ccRkRhST.s:98     .text:00000000000000a4 .L0 
     /tmp/ccRkRhST.s:104    .text:00000000000000a4 _Z12testSleepingv
     /tmp/ccRkRhST.s:107    .text:00000000000000a4 .L0 
     /tmp/ccRkRhST.s:108    .text:00000000000000a4 .L0 
     /tmp/ccRkRhST.s:109    .text:00000000000000a8 .L0 
     /tmp/ccRkRhST.s:113    .text:00000000000000b4 .L0 
     /tmp/ccRkRhST.s:114    .text:00000000000000b4 .L0 
     /tmp/ccRkRhST.s:115    .text:00000000000000b4 .L0 
     /tmp/ccRkRhST.s:117    .text:00000000000000b8 .L0 
     /tmp/ccRkRhST.s:120    .text:00000000000000b8 .L0 
     /tmp/ccRkRhST.s:121    .text:00000000000000b8 .L0 
     /tmp/ccRkRhST.s:122    .text:00000000000000b8 .L0 
     /tmp/ccRkRhST.s:127    .text:00000000000000c8 .L0 
     /tmp/ccRkRhST.s:130    .text:00000000000000c8 .L0 
     /tmp/ccRkRhST.s:131    .text:00000000000000c8 .L0 
     /tmp/ccRkRhST.s:136    .text:00000000000000d0 .L0 
     /tmp/ccRkRhST.s:137    .text:00000000000000d0 .L0 
     /tmp/ccRkRhST.s:139    .text:00000000000000d4 .L0 
     /tmp/ccRkRhST.s:147    .text:00000000000000f4 .L0 
     /tmp/ccRkRhST.s:151    .text:00000000000000f8 .L0 
GAS LISTING /tmp/ccRkRhST.s 			page 7


     /tmp/ccRkRhST.s:156    .text:0000000000000100 .L0 
     /tmp/ccRkRhST.s:157    .text:0000000000000100 .L0 
     /tmp/ccRkRhST.s:158    .text:0000000000000100 .L0 
     /tmp/ccRkRhST.s:160    .text:0000000000000108 .L0 
     /tmp/ccRkRhST.s:162    .text:000000000000010c .L0 
     /tmp/ccRkRhST.s:164    .text:0000000000000114 .L0 
     /tmp/ccRkRhST.s:166    .text:0000000000000118 .L0 
     /tmp/ccRkRhST.s:167    .text:000000000000011c .L0 
     /tmp/ccRkRhST.s:169    .text:0000000000000120 .L0 
     /tmp/ccRkRhST.s:170    .text:0000000000000120 .L0 
     /tmp/ccRkRhST.s:172    .text:0000000000000124 .L0 
     /tmp/ccRkRhST.s:175    .text:0000000000000128 .L0 
     /tmp/ccRkRhST.s:177    .text:000000000000012c .L0 
     /tmp/ccRkRhST.s:182    .bss:0000000000000000 .LANCHOR0
     /tmp/ccRkRhST.s:185    .bss:0000000000000000 _ZL8finished
     /tmp/ccRkRhST.s:194    .text:000000000000012c .L0 
     /tmp/ccRkRhST.s:8      .rodata.str1.8:0000000000000000 .LC0
     /tmp/ccRkRhST.s:50     .text:0000000000000028 .L0 
     /tmp/ccRkRhST.s:11     .rodata.str1.8:0000000000000008 .LC1
     /tmp/ccRkRhST.s:62     .text:000000000000004c .L0 
     /tmp/ccRkRhST.s:81     .text:0000000000000078 .L0 
     /tmp/ccRkRhST.s:141    .text:00000000000000dc .L0 
     /tmp/ccRkRhST.s:158    .text:0000000000000100 .L0 
     /tmp/ccRkRhST.s:162    .text:000000000000010c .L0 
     /tmp/ccRkRhST.s:72     .text:000000000000006c .L2
     /tmp/ccRkRhST.s:42     .text:0000000000000020 .L3
     /tmp/ccRkRhST.s:149    .text:00000000000000f8 .L7
     /tmp/ccRkRhST.s:134    .text:00000000000000d0 .L10
     /tmp/ccRkRhST.s:153    .text:0000000000000100 .L8
     /tmp/ccRkRhST.s:955    .debug_abbrev:0000000000000000 .Ldebug_abbrev0
     /tmp/ccRkRhST.s:1872   .debug_str:000000000000046c .LASF78
     /tmp/ccRkRhST.s:1792   .debug_str:00000000000001bc .LASF79
     /tmp/ccRkRhST.s:1766   .debug_str:00000000000000fa .LASF80
     /tmp/ccRkRhST.s:5      .text:0000000000000000 .Ltext0
     /tmp/ccRkRhST.s:188    .text:000000000000012c .Letext0
     /tmp/ccRkRhST.s:1734   .debug_line:0000000000000000 .Ldebug_line0
     /tmp/ccRkRhST.s:1818   .debug_str:00000000000002a8 .LASF0
     /tmp/ccRkRhST.s:1832   .debug_str:00000000000002ff .LASF1
     /tmp/ccRkRhST.s:1812   .debug_str:000000000000026b .LASF2
     /tmp/ccRkRhST.s:1798   .debug_str:0000000000000210 .LASF4
     /tmp/ccRkRhST.s:1860   .debug_str:000000000000040d .LASF3
     /tmp/ccRkRhST.s:1756   .debug_str:00000000000000b2 .LASF5
     /tmp/ccRkRhST.s:1772   .debug_str:0000000000000141 .LASF6
     /tmp/ccRkRhST.s:1838   .debug_str:0000000000000342 .LASF7
     /tmp/ccRkRhST.s:1816   .debug_str:0000000000000295 .LASF8
     /tmp/ccRkRhST.s:1884   .debug_str:0000000000000587 .LASF9
     /tmp/ccRkRhST.s:1788   .debug_str:00000000000001a1 .LASF10
     /tmp/ccRkRhST.s:1846   .debug_str:0000000000000380 .LASF11
     /tmp/ccRkRhST.s:1874   .debug_str:0000000000000530 .LASF12
     /tmp/ccRkRhST.s:1758   .debug_str:00000000000000b9 .LASF13
     /tmp/ccRkRhST.s:1744   .debug_str:0000000000000044 .LASF14
     /tmp/ccRkRhST.s:1760   .debug_str:00000000000000c9 .LASF15
     /tmp/ccRkRhST.s:1854   .debug_str:00000000000003df .LASF16
     /tmp/ccRkRhST.s:1768   .debug_str:000000000000011d .LASF17
     /tmp/ccRkRhST.s:1780   .debug_str:000000000000016c .LASF18
     /tmp/ccRkRhST.s:1842   .debug_str:000000000000036e .LASF19
     /tmp/ccRkRhST.s:1908   .debug_str:000000000000062e .LASF20
GAS LISTING /tmp/ccRkRhST.s 			page 8


     /tmp/ccRkRhST.s:1794   .debug_str:00000000000001dc .LASF24
     /tmp/ccRkRhST.s:1830   .debug_str:00000000000002f8 .LASF21
     /tmp/ccRkRhST.s:1906   .debug_str:0000000000000629 .LASF22
     /tmp/ccRkRhST.s:1892   .debug_str:00000000000005bc .LASF23
     /tmp/ccRkRhST.s:1840   .debug_str:0000000000000355 .LASF34
     /tmp/ccRkRhST.s:1750   .debug_str:0000000000000077 .LASF25
     /tmp/ccRkRhST.s:1804   .debug_str:000000000000022b .LASF26
     /tmp/ccRkRhST.s:1826   .debug_str:00000000000002d2 .LASF27
     /tmp/ccRkRhST.s:1880   .debug_str:0000000000000570 .LASF28
     /tmp/ccRkRhST.s:1824   .debug_str:00000000000002cc .LASF29
     /tmp/ccRkRhST.s:1802   .debug_str:0000000000000222 .LASF30
     /tmp/ccRkRhST.s:1738   .debug_str:0000000000000009 .LASF31
     /tmp/ccRkRhST.s:1862   .debug_str:000000000000041f .LASF32
     /tmp/ccRkRhST.s:1868   .debug_str:0000000000000445 .LASF36
     /tmp/ccRkRhST.s:1814   .debug_str:0000000000000279 .LASF46
     /tmp/ccRkRhST.s:1778   .debug_str:000000000000015d .LASF33
     /tmp/ccRkRhST.s:1828   .debug_str:00000000000002dc .LASF35
     /tmp/ccRkRhST.s:1900   .debug_str:00000000000005f2 .LASF81
     /tmp/ccRkRhST.s:1886   .debug_str:0000000000000597 .LASF37
     /tmp/ccRkRhST.s:1796   .debug_str:00000000000001e8 .LASF38
     /tmp/ccRkRhST.s:1866   .debug_str:000000000000043d .LASF82
     /tmp/ccRkRhST.s:1864   .debug_str:000000000000042b .LASF83
     /tmp/ccRkRhST.s:1890   .debug_str:00000000000005af .LASF39
     /tmp/ccRkRhST.s:1776   .debug_str:0000000000000155 .LASF40
     /tmp/ccRkRhST.s:1800   .debug_str:0000000000000217 .LASF41
     /tmp/ccRkRhST.s:1878   .debug_str:000000000000055a .LASF43
     /tmp/ccRkRhST.s:1786   .debug_str:0000000000000192 .LASF42
     /tmp/ccRkRhST.s:1742   .debug_str:000000000000001b .LASF44
     /tmp/ccRkRhST.s:1894   .debug_str:00000000000005c1 .LASF84
     /tmp/ccRkRhST.s:1782   .debug_str:0000000000000171 .LASF85
     /tmp/ccRkRhST.s:1898   .debug_str:00000000000005e1 .LASF59
     /tmp/ccRkRhST.s:1852   .debug_str:00000000000003c3 .LASF61
     /tmp/ccRkRhST.s:1774   .debug_str:0000000000000148 .LASF45
     /tmp/ccRkRhST.s:1752   .debug_str:000000000000007f .LASF47
     /tmp/ccRkRhST.s:1904   .debug_str:000000000000061d .LASF48
     /tmp/ccRkRhST.s:1746   .debug_str:0000000000000054 .LASF49
     /tmp/ccRkRhST.s:1882   .debug_str:000000000000057a .LASF50
     /tmp/ccRkRhST.s:1876   .debug_str:000000000000053f .LASF51
     /tmp/ccRkRhST.s:1810   .debug_str:000000000000025e .LASF55
     /tmp/ccRkRhST.s:1754   .debug_str:0000000000000099 .LASF57
     /tmp/ccRkRhST.s:1740   .debug_str:0000000000000011 .LASF52
     /tmp/ccRkRhST.s:1844   .debug_str:0000000000000373 .LASF53
     /tmp/ccRkRhST.s:1870   .debug_str:0000000000000454 .LASF54
     /tmp/ccRkRhST.s:1858   .debug_str:0000000000000400 .LASF56
     /tmp/ccRkRhST.s:1764   .debug_str:00000000000000e2 .LASF58
     /tmp/ccRkRhST.s:1808   .debug_str:0000000000000245 .LASF60
     /tmp/ccRkRhST.s:1850   .debug_str:000000000000039f .LASF62
     /tmp/ccRkRhST.s:1736   .debug_str:0000000000000000 .LASF63
     /tmp/ccRkRhST.s:1790   .debug_str:00000000000001af .LASF64
     /tmp/ccRkRhST.s:1806   .debug_str:0000000000000233 .LASF65
     /tmp/ccRkRhST.s:105    .text:00000000000000a4 .LFB20
     /tmp/ccRkRhST.s:178    .text:000000000000012c .LFE20
     /tmp/ccRkRhST.s:1902   .debug_str:0000000000000609 .LASF66
     /tmp/ccRkRhST.s:1822   .debug_str:00000000000002c0 .LASF67
     /tmp/ccRkRhST.s:1762   .debug_str:00000000000000d5 .LASF68
     /tmp/ccRkRhST.s:129    .text:00000000000000c8 .LBB2
     /tmp/ccRkRhST.s:154    .text:0000000000000100 .LBE2
GAS LISTING /tmp/ccRkRhST.s 			page 9


     /tmp/ccRkRhST.s:1676   .debug_loc:0000000000000000 .LLST3
     /tmp/ccRkRhST.s:145    .text:00000000000000f4 .LVL12
     /tmp/ccRkRhST.s:1888   .debug_str:00000000000005a5 .LASF86
     /tmp/ccRkRhST.s:17     .text:0000000000000000 .LFB19
     /tmp/ccRkRhST.s:99     .text:00000000000000a4 .LFE19
     /tmp/ccRkRhST.s:1688   .debug_loc:0000000000000037 .LLST0
     /tmp/ccRkRhST.s:1820   .debug_str:00000000000002b5 .LASF69
     /tmp/ccRkRhST.s:1702   .debug_loc:0000000000000070 .LLST1
     /tmp/ccRkRhST.s:1709   .debug_loc:0000000000000093 .LLST2
     /tmp/ccRkRhST.s:52     .text:0000000000000038 .LVL4
     /tmp/ccRkRhST.s:59     .text:000000000000004c .LVL5
     /tmp/ccRkRhST.s:64     .text:000000000000005c .LVL6
     /tmp/ccRkRhST.s:69     .text:0000000000000068 .LVL7
     /tmp/ccRkRhST.s:1836   .debug_str:0000000000000321 .LASF70
     /tmp/ccRkRhST.s:1770   .debug_str:0000000000000133 .LASF72
     /tmp/ccRkRhST.s:1896   .debug_str:00000000000005ce .LASF71
     /tmp/ccRkRhST.s:1748   .debug_str:000000000000006b .LASF73
     /tmp/ccRkRhST.s:1834   .debug_str:0000000000000312 .LASF74
     /tmp/ccRkRhST.s:1784   .debug_str:0000000000000189 .LASF75
     /tmp/ccRkRhST.s:1848   .debug_str:000000000000038f .LASF76
     /tmp/ccRkRhST.s:1856   .debug_str:00000000000003f5 .LASF77
     /tmp/ccRkRhST.s:128    .text:00000000000000c8 .LVL10
     /tmp/ccRkRhST.s:133    .text:00000000000000d0 .LVL11
     /tmp/ccRkRhST.s:173    .text:0000000000000124 .LVL14
     /tmp/ccRkRhST.s:21     .text:0000000000000000 .LVL0
     /tmp/ccRkRhST.s:41     .text:0000000000000020 .LVL2
     /tmp/ccRkRhST.s:37     .text:000000000000001c .LVL1
     /tmp/ccRkRhST.s:77     .text:0000000000000074 .LVL8
     /tmp/ccRkRhST.s:46     .text:0000000000000024 .LVL3
     /tmp/ccRkRhST.s:195    .debug_info:0000000000000000 .Ldebug_info0

UNDEFINED SYMBOLS
_Z11printStringPKc
_Z8printIntiii
_Z10time_sleepm
_Z13thread_createPP3TCBPFvPvES2_
