GAS LISTING /tmp/cccuIJwW.s 			page 1


   1              		.file	"Threads_C_API_test.cpp"
   2              		.option pic
   3              		.option norelax
   4              		.text
   5              	.Ltext0:
   6              		.align	2
   8              	_ZL9fibonaccim:
   9              	.LFB19:
  10              		.file 1 "test/Threads_C_API_test.cpp"
   1:test/Threads_C_API_test.cpp **** 
   2:test/Threads_C_API_test.cpp **** #include "../h/syscall_c.hpp"
   3:test/Threads_C_API_test.cpp **** #include "Threads_C_API_test.hpp"
   4:test/Threads_C_API_test.cpp **** 
   5:test/Threads_C_API_test.cpp **** #include "../h/printing.hpp"
   6:test/Threads_C_API_test.cpp **** 
   7:test/Threads_C_API_test.cpp **** static volatile bool finishedA = false;
   8:test/Threads_C_API_test.cpp **** static volatile bool finishedB = false;
   9:test/Threads_C_API_test.cpp **** static volatile bool finishedC = false;
  10:test/Threads_C_API_test.cpp **** static volatile bool finishedD = false;
  11:test/Threads_C_API_test.cpp **** thread_t threads[4];
  12:test/Threads_C_API_test.cpp **** 
  13:test/Threads_C_API_test.cpp **** static uint64 fibonacci(uint64 n) {
  11              		.loc 1 13 35
  12              		.cfi_startproc
  13              	.LVL0:
  14 0000 130101FE 		addi	sp,sp,-32
  15              		.cfi_def_cfa_offset 32
  16 0004 233C1100 		sd	ra,24(sp)
  17 0008 23388100 		sd	s0,16(sp)
  18 000c 23349100 		sd	s1,8(sp)
  19 0010 23302101 		sd	s2,0(sp)
  20              		.cfi_offset 1, -8
  21              		.cfi_offset 8, -16
  22              		.cfi_offset 9, -24
  23              		.cfi_offset 18, -32
  24 0014 13040102 		addi	s0,sp,32
  25              		.cfi_def_cfa 8, 0
  26 0018 93040500 		mv	s1,a0
  14:test/Threads_C_API_test.cpp ****     if (n == 0 || n == 1) { return n; }
  27              		.loc 1 14 5
  28 001c 93071000 		li	a5,1
  29 0020 63F8A702 		bleu	a0,a5,.L1
  15:test/Threads_C_API_test.cpp ****     if (n % 10 == 0) { thread_dispatch(); }
  30              		.loc 1 15 5
  31              		.loc 1 15 11 is_stmt 0
  32 0024 9307A000 		li	a5,10
  33 0028 B377F502 		remu	a5,a0,a5
  34              		.loc 1 15 5
  35 002c 638E0702 		beqz	a5,.L6
  36              	.LVL1:
  37              	.L3:
  16:test/Threads_C_API_test.cpp ****     return fibonacci(n - 1) + fibonacci(n - 2);
  38              		.loc 1 16 5 is_stmt 1
  39              		.loc 1 16 21 is_stmt 0
  40 0030 1385F4FF 		addi	a0,s1,-1
  41 0034 97000000 		call	_ZL9fibonaccim
  41      E7800000 
GAS LISTING /tmp/cccuIJwW.s 			page 2


  42              	.LVL2:
  43 003c 13090500 		mv	s2,a0
  44              		.loc 1 16 40
  45 0040 1385E4FF 		addi	a0,s1,-2
  46 0044 97000000 		call	_ZL9fibonaccim
  46      E7800000 
  47              	.LVL3:
  48              		.loc 1 16 46
  49 004c 3305A900 		add	a0,s2,a0
  50              	.L1:
  17:test/Threads_C_API_test.cpp **** }
  51              		.loc 1 17 1
  52 0050 83308101 		ld	ra,24(sp)
  53              		.cfi_remember_state
  54              		.cfi_restore 1
  55 0054 03340101 		ld	s0,16(sp)
  56              		.cfi_restore 8
  57              		.cfi_def_cfa 2, 32
  58 0058 83348100 		ld	s1,8(sp)
  59              		.cfi_restore 9
  60              	.LVL4:
  61 005c 03390100 		ld	s2,0(sp)
  62              		.cfi_restore 18
  63 0060 13010102 		addi	sp,sp,32
  64              		.cfi_def_cfa_offset 0
  65 0064 67800000 		jr	ra
  66              	.LVL5:
  67              	.L6:
  68              		.cfi_restore_state
  15:test/Threads_C_API_test.cpp ****     if (n % 10 == 0) { thread_dispatch(); }
  69              		.loc 1 15 24 is_stmt 1 discriminator 1
  15:test/Threads_C_API_test.cpp ****     if (n % 10 == 0) { thread_dispatch(); }
  70              		.loc 1 15 39 is_stmt 0 discriminator 1
  71 0068 97000000 		call	_Z15thread_dispatchv@plt
  71      E7800000 
  72              	.LVL6:
  73 0070 6FF01FFC 		j	.L3
  74              		.cfi_endproc
  75              	.LFE19:
  77              		.section	.rodata.str1.8,"aMS",@progbits,1
  78              		.align	3
  79              	.LC0:
  80 0000 443A2069 		.string	"D: i="
  80      3D00
  81 0006 0000     		.align	3
  82              	.LC1:
  83 0008 0A00     		.string	"\n"
  84 000a 00000000 		.align	3
  84      0000
  85              	.LC2:
  86 0010 443A2064 		.string	"D: dispatch\n"
  86      69737061 
  86      7463680A 
  86      00
  87 001d 000000   		.align	3
  88              	.LC3:
  89 0020 443A2066 		.string	"D: fibonaci="
GAS LISTING /tmp/cccuIJwW.s 			page 3


  89      69626F6E 
  89      6163693D 
  89      00
  90 002d 000000   		.align	3
  91              	.LC4:
  92 0030 44206669 		.string	"D finished!\n"
  92      6E697368 
  92      6564210A 
  92      00
  93              		.text
  94              		.align	2
  96              	_ZL11workerBodyDPv:
  97              	.LFB23:
  18:test/Threads_C_API_test.cpp **** 
  19:test/Threads_C_API_test.cpp **** static void workerBodyA(void* arg) {
  20:test/Threads_C_API_test.cpp ****     for (uint64 i = 0; i < 10; i++) {
  21:test/Threads_C_API_test.cpp ****         printString("A: i=");
  22:test/Threads_C_API_test.cpp ****         printInt(i);
  23:test/Threads_C_API_test.cpp ****         printString("\n");
  24:test/Threads_C_API_test.cpp ****         for (uint64 j = 0; j < 10000; j++) {
  25:test/Threads_C_API_test.cpp ****             for (uint64 k = 0; k < 30000; k++) { /* busy wait */ }
  26:test/Threads_C_API_test.cpp ****             thread_dispatch();
  27:test/Threads_C_API_test.cpp ****         }
  28:test/Threads_C_API_test.cpp ****     }
  29:test/Threads_C_API_test.cpp ****     printString("A finished!\n");
  30:test/Threads_C_API_test.cpp ****     finishedA = true;
  31:test/Threads_C_API_test.cpp **** }
  32:test/Threads_C_API_test.cpp **** 
  33:test/Threads_C_API_test.cpp **** static void workerBodyB(void* arg) {
  34:test/Threads_C_API_test.cpp ****     for (uint64 i = 0; i < 16; i++) {
  35:test/Threads_C_API_test.cpp ****         printString("B: i="); printInt(i); printString("\n");
  36:test/Threads_C_API_test.cpp ****         for (uint64 j = 0; j < 10000; j++) {
  37:test/Threads_C_API_test.cpp ****             for (uint64 k = 0; k < 30000; k++) { /* busy wait */ }
  38:test/Threads_C_API_test.cpp ****             thread_dispatch();
  39:test/Threads_C_API_test.cpp ****         }
  40:test/Threads_C_API_test.cpp **** 
  41:test/Threads_C_API_test.cpp ****     }
  42:test/Threads_C_API_test.cpp **** 
  43:test/Threads_C_API_test.cpp ****     printString("B finished!\n");
  44:test/Threads_C_API_test.cpp ****     finishedB = true;
  45:test/Threads_C_API_test.cpp ****     thread_dispatch();
  46:test/Threads_C_API_test.cpp **** }
  47:test/Threads_C_API_test.cpp **** 
  48:test/Threads_C_API_test.cpp **** static void workerBodyC(void* arg) {
  49:test/Threads_C_API_test.cpp ****     uint8 i = 0;
  50:test/Threads_C_API_test.cpp ****     for (; i < 3; i++) {
  51:test/Threads_C_API_test.cpp ****         printString("C: i="); printInt(i); printString("\n");
  52:test/Threads_C_API_test.cpp ****     }
  53:test/Threads_C_API_test.cpp **** 
  54:test/Threads_C_API_test.cpp ****     printString("C: dispatch\n");
  55:test/Threads_C_API_test.cpp ****     __asm__ ("li t1, 7");
  56:test/Threads_C_API_test.cpp ****     thread_dispatch();
  57:test/Threads_C_API_test.cpp **** 
  58:test/Threads_C_API_test.cpp ****     uint64 t1 = 0;
  59:test/Threads_C_API_test.cpp ****     __asm__ ("mv %[t1], t1" : [t1] "=r"(t1));
  60:test/Threads_C_API_test.cpp **** 
  61:test/Threads_C_API_test.cpp ****     printString("C: t1="); printInt(t1); printString("\n");
GAS LISTING /tmp/cccuIJwW.s 			page 4


  62:test/Threads_C_API_test.cpp **** 
  63:test/Threads_C_API_test.cpp ****     uint64 result = fibonacci(12);
  64:test/Threads_C_API_test.cpp ****     printString("C: fibonaci="); printInt(result); printString("\n");
  65:test/Threads_C_API_test.cpp **** 
  66:test/Threads_C_API_test.cpp ****     for (; i < 6; i++) {
  67:test/Threads_C_API_test.cpp ****         printString("C: i="); printInt(i); printString("\n");
  68:test/Threads_C_API_test.cpp ****     }
  69:test/Threads_C_API_test.cpp **** 
  70:test/Threads_C_API_test.cpp ****     printString("C finished!\n");
  71:test/Threads_C_API_test.cpp ****     finishedC = true;
  72:test/Threads_C_API_test.cpp ****     thread_dispatch();
  73:test/Threads_C_API_test.cpp **** }
  74:test/Threads_C_API_test.cpp **** 
  75:test/Threads_C_API_test.cpp **** static void workerBodyD(void* arg) {
  98              		.loc 1 75 36 is_stmt 1
  99              		.cfi_startproc
 100              	.LVL7:
 101 0074 130101FE 		addi	sp,sp,-32
 102              		.cfi_def_cfa_offset 32
 103 0078 233C1100 		sd	ra,24(sp)
 104 007c 23388100 		sd	s0,16(sp)
 105 0080 23349100 		sd	s1,8(sp)
 106 0084 23302101 		sd	s2,0(sp)
 107              		.cfi_offset 1, -8
 108              		.cfi_offset 8, -16
 109              		.cfi_offset 9, -24
 110              		.cfi_offset 18, -32
 111 0088 13040102 		addi	s0,sp,32
 112              		.cfi_def_cfa 8, 0
  76:test/Threads_C_API_test.cpp ****     uint8 i = 10;
 113              		.loc 1 76 5
 114              	.LVL8:
 115              		.loc 1 76 11 is_stmt 0
 116 008c 9304A000 		li	s1,10
 117 0090 6F000004 		j	.L9
 118              	.LVL9:
 119              	.L13:
  77:test/Threads_C_API_test.cpp ****     for (; i < 13; i++) {
  78:test/Threads_C_API_test.cpp ****         printString("D: i="); printInt(i); printString("\n");
 120              		.loc 1 78 9 is_stmt 1 discriminator 1
 121              		.loc 1 78 20 is_stmt 0 discriminator 1
 122 0094 17050000 		lla	a0,.LC0
 122      13050500 
 123 009c 97000000 		call	_Z11printStringPKc@plt
 123      E7800000 
 124              	.LVL10:
 125              		.loc 1 78 31 is_stmt 1 discriminator 1
 126              		.loc 1 78 39 is_stmt 0 discriminator 1
 127 00a4 13060000 		li	a2,0
 128 00a8 9305A000 		li	a1,10
 129 00ac 13850400 		mv	a0,s1
 130 00b0 97000000 		call	_Z8printIntiii@plt
 130      E7800000 
 131              	.LVL11:
 132              		.loc 1 78 44 is_stmt 1 discriminator 1
 133              		.loc 1 78 55 is_stmt 0 discriminator 1
 134 00b8 17050000 		lla	a0,.LC1
GAS LISTING /tmp/cccuIJwW.s 			page 5


 134      13050500 
 135 00c0 97000000 		call	_Z11printStringPKc@plt
 135      E7800000 
 136              	.LVL12:
  77:test/Threads_C_API_test.cpp ****     for (; i < 13; i++) {
 137              		.loc 1 77 5 is_stmt 1 discriminator 1
 138 00c8 9B841400 		addiw	s1,s1,1
 139              	.LVL13:
 140 00cc 93F4F40F 		andi	s1,s1,0xff
 141              	.LVL14:
 142              	.L9:
  77:test/Threads_C_API_test.cpp ****     for (; i < 13; i++) {
 143              		.loc 1 77 5 discriminator 2
  77:test/Threads_C_API_test.cpp ****     for (; i < 13; i++) {
 144              		.loc 1 77 14 discriminator 2
 145 00d0 9307C000 		li	a5,12
 146 00d4 E3F097FC 		bleu	s1,a5,.L13
  79:test/Threads_C_API_test.cpp ****     }
  80:test/Threads_C_API_test.cpp **** 
  81:test/Threads_C_API_test.cpp ****     printString("D: dispatch\n");
 147              		.loc 1 81 5
 148              		.loc 1 81 16 is_stmt 0
 149 00d8 17050000 		lla	a0,.LC2
 149      13050500 
 150 00e0 97000000 		call	_Z11printStringPKc@plt
 150      E7800000 
 151              	.LVL15:
  82:test/Threads_C_API_test.cpp ****     __asm__ ("li t1, 5");
 152              		.loc 1 82 5 is_stmt 1
 153              		.loc 1 82 25 is_stmt 0
 154              	#APP
 155              	# 82 "test/Threads_C_API_test.cpp" 1
  83              	    thread_dispatch();
 156              		li t1, 5
 157              	# 0 "" 2
 158              		.loc 1 83 5 is_stmt 1
 159              		.loc 1 83 20 is_stmt 0
 160              	#NO_APP
 161 00ec 97000000 		call	_Z15thread_dispatchv@plt
 161      E7800000 
 162              	.LVL16:
  84:test/Threads_C_API_test.cpp **** 
  85:test/Threads_C_API_test.cpp ****     uint64 result = fibonacci(16);
 163              		.loc 1 85 5 is_stmt 1
 164              		.loc 1 85 30 is_stmt 0
 165 00f4 13050001 		li	a0,16
 166 00f8 97000000 		call	_ZL9fibonaccim
 166      E7800000 
 167              	.LVL17:
 168 0100 13090500 		mv	s2,a0
 169              	.LVL18:
  86:test/Threads_C_API_test.cpp ****     printString("D: fibonaci="); printInt(result); printString("\n");
 170              		.loc 1 86 5 is_stmt 1
 171              		.loc 1 86 16 is_stmt 0
 172 0104 17050000 		lla	a0,.LC3
 172      13050500 
 173              	.LVL19:
GAS LISTING /tmp/cccuIJwW.s 			page 6


 174 010c 97000000 		call	_Z11printStringPKc@plt
 174      E7800000 
 175              	.LVL20:
 176              		.loc 1 86 34 is_stmt 1
 177              		.loc 1 86 42 is_stmt 0
 178 0114 13060000 		li	a2,0
 179 0118 9305A000 		li	a1,10
 180 011c 1B050900 		sext.w	a0,s2
 181 0120 97000000 		call	_Z8printIntiii@plt
 181      E7800000 
 182              	.LVL21:
 183              		.loc 1 86 52 is_stmt 1
 184              		.loc 1 86 63 is_stmt 0
 185 0128 17050000 		lla	a0,.LC1
 185      13050500 
 186 0130 97000000 		call	_Z11printStringPKc@plt
 186      E7800000 
 187              	.LVL22:
 188 0138 6F000004 		j	.L11
 189              	.L14:
  87:test/Threads_C_API_test.cpp **** 
  88:test/Threads_C_API_test.cpp ****     for (; i < 16; i++) {
  89:test/Threads_C_API_test.cpp ****         printString("D: i="); printInt(i); printString("\n");
 190              		.loc 1 89 9 is_stmt 1 discriminator 1
 191              		.loc 1 89 20 is_stmt 0 discriminator 1
 192 013c 17050000 		lla	a0,.LC0
 192      13050500 
 193 0144 97000000 		call	_Z11printStringPKc@plt
 193      E7800000 
 194              	.LVL23:
 195              		.loc 1 89 31 is_stmt 1 discriminator 1
 196              		.loc 1 89 39 is_stmt 0 discriminator 1
 197 014c 13060000 		li	a2,0
 198 0150 9305A000 		li	a1,10
 199 0154 13850400 		mv	a0,s1
 200 0158 97000000 		call	_Z8printIntiii@plt
 200      E7800000 
 201              	.LVL24:
 202              		.loc 1 89 44 is_stmt 1 discriminator 1
 203              		.loc 1 89 55 is_stmt 0 discriminator 1
 204 0160 17050000 		lla	a0,.LC1
 204      13050500 
 205 0168 97000000 		call	_Z11printStringPKc@plt
 205      E7800000 
 206              	.LVL25:
  88:test/Threads_C_API_test.cpp ****         printString("D: i="); printInt(i); printString("\n");
 207              		.loc 1 88 5 is_stmt 1 discriminator 1
 208 0170 9B841400 		addiw	s1,s1,1
 209              	.LVL26:
 210 0174 93F4F40F 		andi	s1,s1,0xff
 211              	.LVL27:
 212              	.L11:
  88:test/Threads_C_API_test.cpp ****         printString("D: i="); printInt(i); printString("\n");
 213              		.loc 1 88 5 discriminator 2
  88:test/Threads_C_API_test.cpp ****         printString("D: i="); printInt(i); printString("\n");
 214              		.loc 1 88 14 discriminator 2
 215 0178 9307F000 		li	a5,15
GAS LISTING /tmp/cccuIJwW.s 			page 7


 216 017c E3F097FC 		bleu	s1,a5,.L14
  90:test/Threads_C_API_test.cpp ****     }
  91:test/Threads_C_API_test.cpp **** 
  92:test/Threads_C_API_test.cpp ****     printString("D finished!\n");
 217              		.loc 1 92 5
 218              		.loc 1 92 16 is_stmt 0
 219 0180 17050000 		lla	a0,.LC4
 219      13050500 
 220 0188 97000000 		call	_Z11printStringPKc@plt
 220      E7800000 
 221              	.LVL28:
  93:test/Threads_C_API_test.cpp ****     finishedD = true;
 222              		.loc 1 93 5 is_stmt 1
 223              		.loc 1 93 15 is_stmt 0
 224 0190 93071000 		li	a5,1
 225 0194 17070000 		sb	a5,.LANCHOR0,a4
 225      2300F700 
  94:test/Threads_C_API_test.cpp ****     thread_dispatch();
 226              		.loc 1 94 5 is_stmt 1
 227              		.loc 1 94 20 is_stmt 0
 228 019c 97000000 		call	_Z15thread_dispatchv@plt
 228      E7800000 
 229              	.LVL29:
  95:test/Threads_C_API_test.cpp **** }
 230              		.loc 1 95 1
 231 01a4 83308101 		ld	ra,24(sp)
 232              		.cfi_restore 1
 233 01a8 03340101 		ld	s0,16(sp)
 234              		.cfi_restore 8
 235              		.cfi_def_cfa 2, 32
 236 01ac 83348100 		ld	s1,8(sp)
 237              		.cfi_restore 9
 238              	.LVL30:
 239 01b0 03390100 		ld	s2,0(sp)
 240              		.cfi_restore 18
 241              	.LVL31:
 242 01b4 13010102 		addi	sp,sp,32
 243              		.cfi_def_cfa_offset 0
 244 01b8 67800000 		jr	ra
 245              		.cfi_endproc
 246              	.LFE23:
 248              		.section	.rodata.str1.8
 249 003d 000000   		.align	3
 250              	.LC5:
 251 0040 433A2069 		.string	"C: i="
 251      3D00
 252 0046 0000     		.align	3
 253              	.LC6:
 254 0048 433A2064 		.string	"C: dispatch\n"
 254      69737061 
 254      7463680A 
 254      00
 255 0055 000000   		.align	3
 256              	.LC7:
 257 0058 433A2074 		.string	"C: t1="
 257      313D00
 258 005f 00       		.align	3
GAS LISTING /tmp/cccuIJwW.s 			page 8


 259              	.LC8:
 260 0060 433A2066 		.string	"C: fibonaci="
 260      69626F6E 
 260      6163693D 
 260      00
 261 006d 000000   		.align	3
 262              	.LC9:
 263 0070 43206669 		.string	"C finished!\n"
 263      6E697368 
 263      6564210A 
 263      00
 264              		.text
 265              		.align	2
 267              	_ZL11workerBodyCPv:
 268              	.LFB22:
  48:test/Threads_C_API_test.cpp ****     uint8 i = 0;
 269              		.loc 1 48 36 is_stmt 1
 270              		.cfi_startproc
 271              	.LVL32:
 272 01bc 130101FE 		addi	sp,sp,-32
 273              		.cfi_def_cfa_offset 32
 274 01c0 233C1100 		sd	ra,24(sp)
 275 01c4 23388100 		sd	s0,16(sp)
 276 01c8 23349100 		sd	s1,8(sp)
 277 01cc 23302101 		sd	s2,0(sp)
 278              		.cfi_offset 1, -8
 279              		.cfi_offset 8, -16
 280              		.cfi_offset 9, -24
 281              		.cfi_offset 18, -32
 282 01d0 13040102 		addi	s0,sp,32
 283              		.cfi_def_cfa 8, 0
  49:test/Threads_C_API_test.cpp ****     for (; i < 3; i++) {
 284              		.loc 1 49 5
 285              	.LVL33:
  49:test/Threads_C_API_test.cpp ****     for (; i < 3; i++) {
 286              		.loc 1 49 11 is_stmt 0
 287 01d4 93040000 		li	s1,0
 288 01d8 6F000004 		j	.L17
 289              	.LVL34:
 290              	.L21:
  51:test/Threads_C_API_test.cpp ****     }
 291              		.loc 1 51 9 is_stmt 1 discriminator 1
  51:test/Threads_C_API_test.cpp ****     }
 292              		.loc 1 51 20 is_stmt 0 discriminator 1
 293 01dc 17050000 		lla	a0,.LC5
 293      13050500 
 294 01e4 97000000 		call	_Z11printStringPKc@plt
 294      E7800000 
 295              	.LVL35:
  51:test/Threads_C_API_test.cpp ****     }
 296              		.loc 1 51 31 is_stmt 1 discriminator 1
  51:test/Threads_C_API_test.cpp ****     }
 297              		.loc 1 51 39 is_stmt 0 discriminator 1
 298 01ec 13060000 		li	a2,0
 299 01f0 9305A000 		li	a1,10
 300 01f4 13850400 		mv	a0,s1
 301 01f8 97000000 		call	_Z8printIntiii@plt
GAS LISTING /tmp/cccuIJwW.s 			page 9


 301      E7800000 
 302              	.LVL36:
  51:test/Threads_C_API_test.cpp ****     }
 303              		.loc 1 51 44 is_stmt 1 discriminator 1
  51:test/Threads_C_API_test.cpp ****     }
 304              		.loc 1 51 55 is_stmt 0 discriminator 1
 305 0200 17050000 		lla	a0,.LC1
 305      13050500 
 306 0208 97000000 		call	_Z11printStringPKc@plt
 306      E7800000 
 307              	.LVL37:
  50:test/Threads_C_API_test.cpp ****         printString("C: i="); printInt(i); printString("\n");
 308              		.loc 1 50 5 is_stmt 1 discriminator 1
 309 0210 9B841400 		addiw	s1,s1,1
 310              	.LVL38:
 311 0214 93F4F40F 		andi	s1,s1,0xff
 312              	.LVL39:
 313              	.L17:
  50:test/Threads_C_API_test.cpp ****         printString("C: i="); printInt(i); printString("\n");
 314              		.loc 1 50 5 discriminator 2
  50:test/Threads_C_API_test.cpp ****         printString("C: i="); printInt(i); printString("\n");
 315              		.loc 1 50 14 discriminator 2
 316 0218 93072000 		li	a5,2
 317 021c E3F097FC 		bleu	s1,a5,.L21
  54:test/Threads_C_API_test.cpp ****     __asm__ ("li t1, 7");
 318              		.loc 1 54 5
  54:test/Threads_C_API_test.cpp ****     __asm__ ("li t1, 7");
 319              		.loc 1 54 16 is_stmt 0
 320 0220 17050000 		lla	a0,.LC6
 320      13050500 
 321 0228 97000000 		call	_Z11printStringPKc@plt
 321      E7800000 
 322              	.LVL40:
  55:test/Threads_C_API_test.cpp ****     thread_dispatch();
 323              		.loc 1 55 5 is_stmt 1
  55:test/Threads_C_API_test.cpp ****     thread_dispatch();
 324              		.loc 1 55 25 is_stmt 0
 325              	#APP
 326              	# 55 "test/Threads_C_API_test.cpp" 1
  56:test/Threads_C_API_test.cpp **** 
 327              		li t1, 7
 328              	# 0 "" 2
 329              		.loc 1 56 5 is_stmt 1
  56:test/Threads_C_API_test.cpp **** 
 330              		.loc 1 56 20 is_stmt 0
 331              	#NO_APP
 332 0234 97000000 		call	_Z15thread_dispatchv@plt
 332      E7800000 
 333              	.LVL41:
  58:test/Threads_C_API_test.cpp ****     __asm__ ("mv %[t1], t1" : [t1] "=r"(t1));
 334              		.loc 1 58 5 is_stmt 1
  59:test/Threads_C_API_test.cpp **** 
 335              		.loc 1 59 5
  59:test/Threads_C_API_test.cpp **** 
 336              		.loc 1 59 45 is_stmt 0
 337              	#APP
 338              	# 59 "test/Threads_C_API_test.cpp" 1
GAS LISTING /tmp/cccuIJwW.s 			page 10


 339              		mv s2, t1
 340              	# 0 "" 2
 341              	.LVL42:
  61:test/Threads_C_API_test.cpp **** 
 342              		.loc 1 61 5 is_stmt 1
  61:test/Threads_C_API_test.cpp **** 
 343              		.loc 1 61 16 is_stmt 0
 344              	#NO_APP
 345 0240 17050000 		lla	a0,.LC7
 345      13050500 
 346 0248 97000000 		call	_Z11printStringPKc@plt
 346      E7800000 
 347              	.LVL43:
  61:test/Threads_C_API_test.cpp **** 
 348              		.loc 1 61 28 is_stmt 1
  61:test/Threads_C_API_test.cpp **** 
 349              		.loc 1 61 36 is_stmt 0
 350 0250 13060000 		li	a2,0
 351 0254 9305A000 		li	a1,10
 352 0258 1B050900 		sext.w	a0,s2
 353 025c 97000000 		call	_Z8printIntiii@plt
 353      E7800000 
 354              	.LVL44:
  61:test/Threads_C_API_test.cpp **** 
 355              		.loc 1 61 42 is_stmt 1
  61:test/Threads_C_API_test.cpp **** 
 356              		.loc 1 61 53 is_stmt 0
 357 0264 17050000 		lla	a0,.LC1
 357      13050500 
 358 026c 97000000 		call	_Z11printStringPKc@plt
 358      E7800000 
 359              	.LVL45:
  63:test/Threads_C_API_test.cpp ****     printString("C: fibonaci="); printInt(result); printString("\n");
 360              		.loc 1 63 5 is_stmt 1
  63:test/Threads_C_API_test.cpp ****     printString("C: fibonaci="); printInt(result); printString("\n");
 361              		.loc 1 63 30 is_stmt 0
 362 0274 1305C000 		li	a0,12
 363 0278 97000000 		call	_ZL9fibonaccim
 363      E7800000 
 364              	.LVL46:
 365 0280 13090500 		mv	s2,a0
 366              	.LVL47:
  64:test/Threads_C_API_test.cpp **** 
 367              		.loc 1 64 5 is_stmt 1
  64:test/Threads_C_API_test.cpp **** 
 368              		.loc 1 64 16 is_stmt 0
 369 0284 17050000 		lla	a0,.LC8
 369      13050500 
 370              	.LVL48:
 371 028c 97000000 		call	_Z11printStringPKc@plt
 371      E7800000 
 372              	.LVL49:
  64:test/Threads_C_API_test.cpp **** 
 373              		.loc 1 64 34 is_stmt 1
  64:test/Threads_C_API_test.cpp **** 
 374              		.loc 1 64 42 is_stmt 0
 375 0294 13060000 		li	a2,0
GAS LISTING /tmp/cccuIJwW.s 			page 11


 376 0298 9305A000 		li	a1,10
 377 029c 1B050900 		sext.w	a0,s2
 378 02a0 97000000 		call	_Z8printIntiii@plt
 378      E7800000 
 379              	.LVL50:
  64:test/Threads_C_API_test.cpp **** 
 380              		.loc 1 64 52 is_stmt 1
  64:test/Threads_C_API_test.cpp **** 
 381              		.loc 1 64 63 is_stmt 0
 382 02a8 17050000 		lla	a0,.LC1
 382      13050500 
 383 02b0 97000000 		call	_Z11printStringPKc@plt
 383      E7800000 
 384              	.LVL51:
 385 02b8 6F000004 		j	.L19
 386              	.L22:
  67:test/Threads_C_API_test.cpp ****     }
 387              		.loc 1 67 9 is_stmt 1 discriminator 1
  67:test/Threads_C_API_test.cpp ****     }
 388              		.loc 1 67 20 is_stmt 0 discriminator 1
 389 02bc 17050000 		lla	a0,.LC5
 389      13050500 
 390 02c4 97000000 		call	_Z11printStringPKc@plt
 390      E7800000 
 391              	.LVL52:
  67:test/Threads_C_API_test.cpp ****     }
 392              		.loc 1 67 31 is_stmt 1 discriminator 1
  67:test/Threads_C_API_test.cpp ****     }
 393              		.loc 1 67 39 is_stmt 0 discriminator 1
 394 02cc 13060000 		li	a2,0
 395 02d0 9305A000 		li	a1,10
 396 02d4 13850400 		mv	a0,s1
 397 02d8 97000000 		call	_Z8printIntiii@plt
 397      E7800000 
 398              	.LVL53:
  67:test/Threads_C_API_test.cpp ****     }
 399              		.loc 1 67 44 is_stmt 1 discriminator 1
  67:test/Threads_C_API_test.cpp ****     }
 400              		.loc 1 67 55 is_stmt 0 discriminator 1
 401 02e0 17050000 		lla	a0,.LC1
 401      13050500 
 402 02e8 97000000 		call	_Z11printStringPKc@plt
 402      E7800000 
 403              	.LVL54:
  66:test/Threads_C_API_test.cpp ****         printString("C: i="); printInt(i); printString("\n");
 404              		.loc 1 66 5 is_stmt 1 discriminator 1
 405 02f0 9B841400 		addiw	s1,s1,1
 406              	.LVL55:
 407 02f4 93F4F40F 		andi	s1,s1,0xff
 408              	.LVL56:
 409              	.L19:
  66:test/Threads_C_API_test.cpp ****         printString("C: i="); printInt(i); printString("\n");
 410              		.loc 1 66 5 discriminator 2
  66:test/Threads_C_API_test.cpp ****         printString("C: i="); printInt(i); printString("\n");
 411              		.loc 1 66 14 discriminator 2
 412 02f8 93075000 		li	a5,5
 413 02fc E3F097FC 		bleu	s1,a5,.L22
GAS LISTING /tmp/cccuIJwW.s 			page 12


  70:test/Threads_C_API_test.cpp ****     finishedC = true;
 414              		.loc 1 70 5
  70:test/Threads_C_API_test.cpp ****     finishedC = true;
 415              		.loc 1 70 16 is_stmt 0
 416 0300 17050000 		lla	a0,.LC9
 416      13050500 
 417 0308 97000000 		call	_Z11printStringPKc@plt
 417      E7800000 
 418              	.LVL57:
  71:test/Threads_C_API_test.cpp ****     thread_dispatch();
 419              		.loc 1 71 5 is_stmt 1
  71:test/Threads_C_API_test.cpp ****     thread_dispatch();
 420              		.loc 1 71 15 is_stmt 0
 421 0310 93071000 		li	a5,1
 422 0314 17070000 		sb	a5,.LANCHOR0+1,a4
 422      2300F700 
  72:test/Threads_C_API_test.cpp **** }
 423              		.loc 1 72 5 is_stmt 1
  72:test/Threads_C_API_test.cpp **** }
 424              		.loc 1 72 20 is_stmt 0
 425 031c 97000000 		call	_Z15thread_dispatchv@plt
 425      E7800000 
 426              	.LVL58:
  73:test/Threads_C_API_test.cpp **** 
 427              		.loc 1 73 1
 428 0324 83308101 		ld	ra,24(sp)
 429              		.cfi_restore 1
 430 0328 03340101 		ld	s0,16(sp)
 431              		.cfi_restore 8
 432              		.cfi_def_cfa 2, 32
 433 032c 83348100 		ld	s1,8(sp)
 434              		.cfi_restore 9
 435              	.LVL59:
 436 0330 03390100 		ld	s2,0(sp)
 437              		.cfi_restore 18
 438              	.LVL60:
 439 0334 13010102 		addi	sp,sp,32
 440              		.cfi_def_cfa_offset 0
 441 0338 67800000 		jr	ra
 442              		.cfi_endproc
 443              	.LFE22:
 445              		.section	.rodata.str1.8
 446 007d 000000   		.align	3
 447              	.LC10:
 448 0080 423A2069 		.string	"B: i="
 448      3D00
 449 0086 0000     		.align	3
 450              	.LC11:
 451 0088 42206669 		.string	"B finished!\n"
 451      6E697368 
 451      6564210A 
 451      00
 452              		.text
 453              		.align	2
 455              	_ZL11workerBodyBPv:
 456              	.LFB21:
  33:test/Threads_C_API_test.cpp ****     for (uint64 i = 0; i < 16; i++) {
GAS LISTING /tmp/cccuIJwW.s 			page 13


 457              		.loc 1 33 36 is_stmt 1
 458              		.cfi_startproc
 459              	.LVL61:
 460 033c 130101FE 		addi	sp,sp,-32
 461              		.cfi_def_cfa_offset 32
 462 0340 233C1100 		sd	ra,24(sp)
 463 0344 23388100 		sd	s0,16(sp)
 464 0348 23349100 		sd	s1,8(sp)
 465 034c 23302101 		sd	s2,0(sp)
 466              		.cfi_offset 1, -8
 467              		.cfi_offset 8, -16
 468              		.cfi_offset 9, -24
 469              		.cfi_offset 18, -32
 470 0350 13040102 		addi	s0,sp,32
 471              		.cfi_def_cfa 8, 0
  34:test/Threads_C_API_test.cpp ****         printString("B: i="); printInt(i); printString("\n");
 472              		.loc 1 34 5
 473              	.LVL62:
 474              	.LBB2:
  34:test/Threads_C_API_test.cpp ****         printString("B: i="); printInt(i); printString("\n");
 475              		.loc 1 34 17 is_stmt 0
 476 0354 13090000 		li	s2,0
 477 0358 6F008003 		j	.L29
 478              	.LVL63:
 479              	.L26:
 480              	.LBB3:
 481              	.LBB4:
 482              	.LBB5:
  38:test/Threads_C_API_test.cpp ****         }
 483              		.loc 1 38 13 is_stmt 1 discriminator 2
  38:test/Threads_C_API_test.cpp ****         }
 484              		.loc 1 38 28 is_stmt 0 discriminator 2
 485 035c 97000000 		call	_Z15thread_dispatchv@plt
 485      E7800000 
 486              	.LVL64:
 487              	.LBE5:
  36:test/Threads_C_API_test.cpp ****             for (uint64 k = 0; k < 30000; k++) { /* busy wait */ }
 488              		.loc 1 36 9 is_stmt 1 discriminator 2
 489 0364 93841400 		addi	s1,s1,1
 490              	.LVL65:
 491              	.L28:
  36:test/Threads_C_API_test.cpp ****             for (uint64 k = 0; k < 30000; k++) { /* busy wait */ }
 492              		.loc 1 36 30 discriminator 1
 493 0368 B7270000 		li	a5,8192
 494 036c 9387F770 		addi	a5,a5,1807
 495 0370 63EE9700 		bgtu	s1,a5,.L25
 496              	.LBB7:
 497              	.LBB6:
  37:test/Threads_C_API_test.cpp ****             thread_dispatch();
 498              		.loc 1 37 25 is_stmt 0
 499 0374 13070000 		li	a4,0
 500              	.L27:
 501              	.LVL66:
  37:test/Threads_C_API_test.cpp ****             thread_dispatch();
 502              		.loc 1 37 34 is_stmt 1 discriminator 3
 503 0378 B7770000 		li	a5,28672
 504 037c 9387F752 		addi	a5,a5,1327
GAS LISTING /tmp/cccuIJwW.s 			page 14


 505 0380 E3EEE7FC 		bgtu	a4,a5,.L26
  37:test/Threads_C_API_test.cpp ****             thread_dispatch();
 506              		.loc 1 37 13 discriminator 2
 507 0384 13071700 		addi	a4,a4,1
 508              	.LVL67:
 509 0388 6FF01FFF 		j	.L27
 510              	.LVL68:
 511              	.L25:
 512              	.LBE6:
 513              	.LBE7:
 514              	.LBE4:
 515              	.LBE3:
  34:test/Threads_C_API_test.cpp ****         printString("B: i="); printInt(i); printString("\n");
 516              		.loc 1 34 5 discriminator 2
 517 038c 13091900 		addi	s2,s2,1
 518              	.LVL69:
 519              	.L29:
  34:test/Threads_C_API_test.cpp ****         printString("B: i="); printInt(i); printString("\n");
 520              		.loc 1 34 26 discriminator 1
 521 0390 9307F000 		li	a5,15
 522 0394 63E02705 		bgtu	s2,a5,.L24
 523              	.LBB9:
  35:test/Threads_C_API_test.cpp ****         for (uint64 j = 0; j < 10000; j++) {
 524              		.loc 1 35 9
  35:test/Threads_C_API_test.cpp ****         for (uint64 j = 0; j < 10000; j++) {
 525              		.loc 1 35 20 is_stmt 0
 526 0398 17050000 		lla	a0,.LC10
 526      13050500 
 527 03a0 97000000 		call	_Z11printStringPKc@plt
 527      E7800000 
 528              	.LVL70:
  35:test/Threads_C_API_test.cpp ****         for (uint64 j = 0; j < 10000; j++) {
 529              		.loc 1 35 31 is_stmt 1
  35:test/Threads_C_API_test.cpp ****         for (uint64 j = 0; j < 10000; j++) {
 530              		.loc 1 35 39 is_stmt 0
 531 03a8 13060000 		li	a2,0
 532 03ac 9305A000 		li	a1,10
 533 03b0 1B050900 		sext.w	a0,s2
 534 03b4 97000000 		call	_Z8printIntiii@plt
 534      E7800000 
 535              	.LVL71:
  35:test/Threads_C_API_test.cpp ****         for (uint64 j = 0; j < 10000; j++) {
 536              		.loc 1 35 44 is_stmt 1
  35:test/Threads_C_API_test.cpp ****         for (uint64 j = 0; j < 10000; j++) {
 537              		.loc 1 35 55 is_stmt 0
 538 03bc 17050000 		lla	a0,.LC1
 538      13050500 
 539 03c4 97000000 		call	_Z11printStringPKc@plt
 539      E7800000 
 540              	.LVL72:
  36:test/Threads_C_API_test.cpp ****             for (uint64 k = 0; k < 30000; k++) { /* busy wait */ }
 541              		.loc 1 36 9 is_stmt 1
 542              	.LBB8:
  36:test/Threads_C_API_test.cpp ****             for (uint64 k = 0; k < 30000; k++) { /* busy wait */ }
 543              		.loc 1 36 21 is_stmt 0
 544 03cc 93040000 		li	s1,0
 545 03d0 6FF09FF9 		j	.L28
GAS LISTING /tmp/cccuIJwW.s 			page 15


 546              	.LVL73:
 547              	.L24:
 548              	.LBE8:
 549              	.LBE9:
 550              	.LBE2:
  43:test/Threads_C_API_test.cpp ****     finishedB = true;
 551              		.loc 1 43 5 is_stmt 1
  43:test/Threads_C_API_test.cpp ****     finishedB = true;
 552              		.loc 1 43 16 is_stmt 0
 553 03d4 17050000 		lla	a0,.LC11
 553      13050500 
 554 03dc 97000000 		call	_Z11printStringPKc@plt
 554      E7800000 
 555              	.LVL74:
  44:test/Threads_C_API_test.cpp ****     thread_dispatch();
 556              		.loc 1 44 5 is_stmt 1
  44:test/Threads_C_API_test.cpp ****     thread_dispatch();
 557              		.loc 1 44 15 is_stmt 0
 558 03e4 93071000 		li	a5,1
 559 03e8 17070000 		sb	a5,.LANCHOR0+2,a4
 559      2300F700 
  45:test/Threads_C_API_test.cpp **** }
 560              		.loc 1 45 5 is_stmt 1
  45:test/Threads_C_API_test.cpp **** }
 561              		.loc 1 45 20 is_stmt 0
 562 03f0 97000000 		call	_Z15thread_dispatchv@plt
 562      E7800000 
 563              	.LVL75:
  46:test/Threads_C_API_test.cpp **** 
 564              		.loc 1 46 1
 565 03f8 83308101 		ld	ra,24(sp)
 566              		.cfi_restore 1
 567 03fc 03340101 		ld	s0,16(sp)
 568              		.cfi_restore 8
 569              		.cfi_def_cfa 2, 32
 570 0400 83348100 		ld	s1,8(sp)
 571              		.cfi_restore 9
 572 0404 03390100 		ld	s2,0(sp)
 573              		.cfi_restore 18
 574              	.LVL76:
 575 0408 13010102 		addi	sp,sp,32
 576              		.cfi_def_cfa_offset 0
 577 040c 67800000 		jr	ra
 578              		.cfi_endproc
 579              	.LFE21:
 581              		.section	.rodata.str1.8
 582 0095 000000   		.align	3
 583              	.LC12:
 584 0098 413A2069 		.string	"A: i="
 584      3D00
 585 009e 0000     		.align	3
 586              	.LC13:
 587 00a0 41206669 		.string	"A finished!\n"
 587      6E697368 
 587      6564210A 
 587      00
 588              		.text
GAS LISTING /tmp/cccuIJwW.s 			page 16


 589              		.align	2
 591              	_ZL11workerBodyAPv:
 592              	.LFB20:
  19:test/Threads_C_API_test.cpp ****     for (uint64 i = 0; i < 10; i++) {
 593              		.loc 1 19 36 is_stmt 1
 594              		.cfi_startproc
 595              	.LVL77:
 596 0410 130101FE 		addi	sp,sp,-32
 597              		.cfi_def_cfa_offset 32
 598 0414 233C1100 		sd	ra,24(sp)
 599 0418 23388100 		sd	s0,16(sp)
 600 041c 23349100 		sd	s1,8(sp)
 601 0420 23302101 		sd	s2,0(sp)
 602              		.cfi_offset 1, -8
 603              		.cfi_offset 8, -16
 604              		.cfi_offset 9, -24
 605              		.cfi_offset 18, -32
 606 0424 13040102 		addi	s0,sp,32
 607              		.cfi_def_cfa 8, 0
  20:test/Threads_C_API_test.cpp ****         printString("A: i=");
 608              		.loc 1 20 5
 609              	.LVL78:
 610              	.LBB10:
  20:test/Threads_C_API_test.cpp ****         printString("A: i=");
 611              		.loc 1 20 17 is_stmt 0
 612 0428 13090000 		li	s2,0
 613 042c 6F008003 		j	.L37
 614              	.LVL79:
 615              	.L34:
 616              	.LBB11:
 617              	.LBB12:
 618              	.LBB13:
  26:test/Threads_C_API_test.cpp ****         }
 619              		.loc 1 26 13 is_stmt 1 discriminator 2
  26:test/Threads_C_API_test.cpp ****         }
 620              		.loc 1 26 28 is_stmt 0 discriminator 2
 621 0430 97000000 		call	_Z15thread_dispatchv@plt
 621      E7800000 
 622              	.LVL80:
 623              	.LBE13:
  24:test/Threads_C_API_test.cpp ****             for (uint64 k = 0; k < 30000; k++) { /* busy wait */ }
 624              		.loc 1 24 9 is_stmt 1 discriminator 2
 625 0438 93841400 		addi	s1,s1,1
 626              	.LVL81:
 627              	.L36:
  24:test/Threads_C_API_test.cpp ****             for (uint64 k = 0; k < 30000; k++) { /* busy wait */ }
 628              		.loc 1 24 30 discriminator 1
 629 043c B7270000 		li	a5,8192
 630 0440 9387F770 		addi	a5,a5,1807
 631 0444 63EE9700 		bgtu	s1,a5,.L33
 632              	.LBB15:
 633              	.LBB14:
  25:test/Threads_C_API_test.cpp ****             thread_dispatch();
 634              		.loc 1 25 25 is_stmt 0
 635 0448 13070000 		li	a4,0
 636              	.L35:
 637              	.LVL82:
GAS LISTING /tmp/cccuIJwW.s 			page 17


  25:test/Threads_C_API_test.cpp ****             thread_dispatch();
 638              		.loc 1 25 34 is_stmt 1 discriminator 3
 639 044c B7770000 		li	a5,28672
 640 0450 9387F752 		addi	a5,a5,1327
 641 0454 E3EEE7FC 		bgtu	a4,a5,.L34
  25:test/Threads_C_API_test.cpp ****             thread_dispatch();
 642              		.loc 1 25 13 discriminator 2
 643 0458 13071700 		addi	a4,a4,1
 644              	.LVL83:
 645 045c 6FF01FFF 		j	.L35
 646              	.LVL84:
 647              	.L33:
 648              	.LBE14:
 649              	.LBE15:
 650              	.LBE12:
 651              	.LBE11:
  20:test/Threads_C_API_test.cpp ****         printString("A: i=");
 652              		.loc 1 20 5 discriminator 2
 653 0460 13091900 		addi	s2,s2,1
 654              	.LVL85:
 655              	.L37:
  20:test/Threads_C_API_test.cpp ****         printString("A: i=");
 656              		.loc 1 20 26 discriminator 1
 657 0464 93079000 		li	a5,9
 658 0468 63E02705 		bgtu	s2,a5,.L32
 659              	.LBB17:
  21:test/Threads_C_API_test.cpp ****         printInt(i);
 660              		.loc 1 21 9
  21:test/Threads_C_API_test.cpp ****         printInt(i);
 661              		.loc 1 21 20 is_stmt 0
 662 046c 17050000 		lla	a0,.LC12
 662      13050500 
 663 0474 97000000 		call	_Z11printStringPKc@plt
 663      E7800000 
 664              	.LVL86:
  22:test/Threads_C_API_test.cpp ****         printString("\n");
 665              		.loc 1 22 9 is_stmt 1
  22:test/Threads_C_API_test.cpp ****         printString("\n");
 666              		.loc 1 22 17 is_stmt 0
 667 047c 13060000 		li	a2,0
 668 0480 9305A000 		li	a1,10
 669 0484 1B050900 		sext.w	a0,s2
 670 0488 97000000 		call	_Z8printIntiii@plt
 670      E7800000 
 671              	.LVL87:
  23:test/Threads_C_API_test.cpp ****         for (uint64 j = 0; j < 10000; j++) {
 672              		.loc 1 23 9 is_stmt 1
  23:test/Threads_C_API_test.cpp ****         for (uint64 j = 0; j < 10000; j++) {
 673              		.loc 1 23 20 is_stmt 0
 674 0490 17050000 		lla	a0,.LC1
 674      13050500 
 675 0498 97000000 		call	_Z11printStringPKc@plt
 675      E7800000 
 676              	.LVL88:
  24:test/Threads_C_API_test.cpp ****             for (uint64 k = 0; k < 30000; k++) { /* busy wait */ }
 677              		.loc 1 24 9 is_stmt 1
 678              	.LBB16:
GAS LISTING /tmp/cccuIJwW.s 			page 18


  24:test/Threads_C_API_test.cpp ****             for (uint64 k = 0; k < 30000; k++) { /* busy wait */ }
 679              		.loc 1 24 21 is_stmt 0
 680 04a0 93040000 		li	s1,0
 681 04a4 6FF09FF9 		j	.L36
 682              	.LVL89:
 683              	.L32:
 684              	.LBE16:
 685              	.LBE17:
 686              	.LBE10:
  29:test/Threads_C_API_test.cpp ****     finishedA = true;
 687              		.loc 1 29 5 is_stmt 1
  29:test/Threads_C_API_test.cpp ****     finishedA = true;
 688              		.loc 1 29 16 is_stmt 0
 689 04a8 17050000 		lla	a0,.LC13
 689      13050500 
 690 04b0 97000000 		call	_Z11printStringPKc@plt
 690      E7800000 
 691              	.LVL90:
  30:test/Threads_C_API_test.cpp **** }
 692              		.loc 1 30 5 is_stmt 1
  30:test/Threads_C_API_test.cpp **** }
 693              		.loc 1 30 15 is_stmt 0
 694 04b8 93071000 		li	a5,1
 695 04bc 17070000 		sb	a5,.LANCHOR0+3,a4
 695      2300F700 
  31:test/Threads_C_API_test.cpp **** 
 696              		.loc 1 31 1
 697 04c4 83308101 		ld	ra,24(sp)
 698              		.cfi_restore 1
 699 04c8 03340101 		ld	s0,16(sp)
 700              		.cfi_restore 8
 701              		.cfi_def_cfa 2, 32
 702 04cc 83348100 		ld	s1,8(sp)
 703              		.cfi_restore 9
 704 04d0 03390100 		ld	s2,0(sp)
 705              		.cfi_restore 18
 706              	.LVL91:
 707 04d4 13010102 		addi	sp,sp,32
 708              		.cfi_def_cfa_offset 0
 709 04d8 67800000 		jr	ra
 710              		.cfi_endproc
 711              	.LFE20:
 713              		.section	.rodata.str1.8
 714 00ad 000000   		.align	3
 715              	.LC14:
 716 00b0 54687265 		.string	"ThreadA created\n"
 716      61644120 
 716      63726561 
 716      7465640A 
 716      00
 717 00c1 00000000 		.align	3
 717      000000
 718              	.LC15:
 719 00c8 54687265 		.string	"ThreadB created\n"
 719      61644220 
 719      63726561 
 719      7465640A 
GAS LISTING /tmp/cccuIJwW.s 			page 19


 719      00
 720 00d9 00000000 		.align	3
 720      000000
 721              	.LC16:
 722 00e0 54687265 		.string	"ThreadC created\n"
 722      61644320 
 722      63726561 
 722      7465640A 
 722      00
 723 00f1 00000000 		.align	3
 723      000000
 724              	.LC17:
 725 00f8 54687265 		.string	"ThreadD created\n"
 725      61644420 
 725      63726561 
 725      7465640A 
 725      00
 726              		.text
 727              		.align	2
 728              		.globl	_Z18Threads_C_API_testv
 730              	_Z18Threads_C_API_testv:
 731              	.LFB24:
  96:test/Threads_C_API_test.cpp **** 
  97:test/Threads_C_API_test.cpp **** 
  98:test/Threads_C_API_test.cpp **** void Threads_C_API_test() {
 732              		.loc 1 98 27 is_stmt 1
 733              		.cfi_startproc
 734 04dc 130101FF 		addi	sp,sp,-16
 735              		.cfi_def_cfa_offset 16
 736 04e0 23341100 		sd	ra,8(sp)
 737 04e4 23308100 		sd	s0,0(sp)
 738              		.cfi_offset 1, -8
 739              		.cfi_offset 8, -16
 740 04e8 13040101 		addi	s0,sp,16
 741              		.cfi_def_cfa 8, 0
  99:test/Threads_C_API_test.cpp **** 
 100:test/Threads_C_API_test.cpp ****     thread_create(&threads[0], workerBodyA, nullptr);
 742              		.loc 1 100 5
 743              		.loc 1 100 18 is_stmt 0
 744 04ec 13060000 		li	a2,0
 745 04f0 97050000 		lla	a1,_ZL11workerBodyAPv
 745      93850500 
 746 04f8 17050000 		lla	a0,.LANCHOR0+8
 746      13050500 
 747 0500 97000000 		call	_Z13thread_createPP3TCBPFvPvES2_@plt
 747      E7800000 
 748              	.LVL92:
 101:test/Threads_C_API_test.cpp ****     printString("ThreadA created\n");
 749              		.loc 1 101 5 is_stmt 1
 750              		.loc 1 101 16 is_stmt 0
 751 0508 17050000 		lla	a0,.LC14
 751      13050500 
 752 0510 97000000 		call	_Z11printStringPKc@plt
 752      E7800000 
 753              	.LVL93:
 102:test/Threads_C_API_test.cpp **** 
 103:test/Threads_C_API_test.cpp ****     thread_create(&threads[1], workerBodyB, nullptr);
GAS LISTING /tmp/cccuIJwW.s 			page 20


 754              		.loc 1 103 5 is_stmt 1
 755              		.loc 1 103 18 is_stmt 0
 756 0518 13060000 		li	a2,0
 757 051c 97050000 		lla	a1,_ZL11workerBodyBPv
 757      93850500 
 758 0524 17050000 		lla	a0,.LANCHOR0+16
 758      13050500 
 759 052c 97000000 		call	_Z13thread_createPP3TCBPFvPvES2_@plt
 759      E7800000 
 760              	.LVL94:
 104:test/Threads_C_API_test.cpp ****     printString("ThreadB created\n");
 761              		.loc 1 104 5 is_stmt 1
 762              		.loc 1 104 16 is_stmt 0
 763 0534 17050000 		lla	a0,.LC15
 763      13050500 
 764 053c 97000000 		call	_Z11printStringPKc@plt
 764      E7800000 
 765              	.LVL95:
 105:test/Threads_C_API_test.cpp **** 
 106:test/Threads_C_API_test.cpp ****     thread_create(&threads[2], workerBodyC, nullptr);
 766              		.loc 1 106 5 is_stmt 1
 767              		.loc 1 106 18 is_stmt 0
 768 0544 13060000 		li	a2,0
 769 0548 97050000 		lla	a1,_ZL11workerBodyCPv
 769      93850500 
 770 0550 17050000 		lla	a0,.LANCHOR0+24
 770      13050500 
 771 0558 97000000 		call	_Z13thread_createPP3TCBPFvPvES2_@plt
 771      E7800000 
 772              	.LVL96:
 107:test/Threads_C_API_test.cpp ****     printString("ThreadC created\n");
 773              		.loc 1 107 5 is_stmt 1
 774              		.loc 1 107 16 is_stmt 0
 775 0560 17050000 		lla	a0,.LC16
 775      13050500 
 776 0568 97000000 		call	_Z11printStringPKc@plt
 776      E7800000 
 777              	.LVL97:
 108:test/Threads_C_API_test.cpp **** 
 109:test/Threads_C_API_test.cpp ****     thread_create(&threads[3], workerBodyD, nullptr);
 778              		.loc 1 109 5 is_stmt 1
 779              		.loc 1 109 18 is_stmt 0
 780 0570 13060000 		li	a2,0
 781 0574 97050000 		lla	a1,_ZL11workerBodyDPv
 781      93850500 
 782 057c 17050000 		lla	a0,.LANCHOR0+32
 782      13050500 
 783 0584 97000000 		call	_Z13thread_createPP3TCBPFvPvES2_@plt
 783      E7800000 
 784              	.LVL98:
 110:test/Threads_C_API_test.cpp ****     printString("ThreadD created\n");
 785              		.loc 1 110 5 is_stmt 1
 786              		.loc 1 110 16 is_stmt 0
 787 058c 17050000 		lla	a0,.LC17
 787      13050500 
 788 0594 97000000 		call	_Z11printStringPKc@plt
 788      E7800000 
GAS LISTING /tmp/cccuIJwW.s 			page 21


 789              	.LVL99:
 790 059c 6F00C000 		j	.L41
 791              	.L40:
 111:test/Threads_C_API_test.cpp **** 
 112:test/Threads_C_API_test.cpp ****     while (!(finishedA && finishedB && finishedC && finishedD)) {
 113:test/Threads_C_API_test.cpp ****         thread_dispatch();
 792              		.loc 1 113 9 is_stmt 1
 793              		.loc 1 113 24 is_stmt 0
 794 05a0 97000000 		call	_Z15thread_dispatchv@plt
 794      E7800000 
 795              	.LVL100:
 796              	.L41:
 112:test/Threads_C_API_test.cpp ****         thread_dispatch();
 797              		.loc 1 112 5 is_stmt 1
 112:test/Threads_C_API_test.cpp ****         thread_dispatch();
 798              		.loc 1 112 12
 112:test/Threads_C_API_test.cpp ****         thread_dispatch();
 799              		.loc 1 112 14 is_stmt 0
 800 05a8 97070000 		lbu	a5,.LANCHOR0+3
 800      83C70700 
 112:test/Threads_C_API_test.cpp ****         thread_dispatch();
 801              		.loc 1 112 12
 802 05b0 E38807FE 		beqz	a5,.L40
 112:test/Threads_C_API_test.cpp ****         thread_dispatch();
 803              		.loc 1 112 27 discriminator 2
 804 05b4 97070000 		lbu	a5,.LANCHOR0+2
 804      83C70700 
 112:test/Threads_C_API_test.cpp ****         thread_dispatch();
 805              		.loc 1 112 24 discriminator 2
 806 05bc E38207FE 		beqz	a5,.L40
 112:test/Threads_C_API_test.cpp ****         thread_dispatch();
 807              		.loc 1 112 40 discriminator 4
 808 05c0 97070000 		lbu	a5,.LANCHOR0+1
 808      83C70700 
 112:test/Threads_C_API_test.cpp ****         thread_dispatch();
 809              		.loc 1 112 37 discriminator 4
 810 05c8 E38C07FC 		beqz	a5,.L40
 112:test/Threads_C_API_test.cpp ****         thread_dispatch();
 811              		.loc 1 112 53 discriminator 6
 812 05cc 97070000 		lbu	a5,.LANCHOR0
 812      83C70700 
 112:test/Threads_C_API_test.cpp ****         thread_dispatch();
 813              		.loc 1 112 12 discriminator 6
 814 05d4 E38607FC 		beqz	a5,.L40
 114:test/Threads_C_API_test.cpp ****     }
 115:test/Threads_C_API_test.cpp **** 
 116:test/Threads_C_API_test.cpp **** }
 815              		.loc 1 116 1
 816 05d8 83308100 		ld	ra,8(sp)
 817              		.cfi_restore 1
 818 05dc 03340100 		ld	s0,0(sp)
 819              		.cfi_restore 8
 820              		.cfi_def_cfa 2, 16
 821 05e0 13010101 		addi	sp,sp,16
 822              		.cfi_def_cfa_offset 0
 823 05e4 67800000 		jr	ra
 824              		.cfi_endproc
GAS LISTING /tmp/cccuIJwW.s 			page 22


 825              	.LFE24:
 827              		.globl	threads
 828              		.bss
 829              		.align	3
 830              		.set	.LANCHOR0,. + 0
 833              	_ZL9finishedD:
 834 0000 00       		.zero	1
 837              	_ZL9finishedC:
 838 0001 00       		.zero	1
 841              	_ZL9finishedB:
 842 0002 00       		.zero	1
 845              	_ZL9finishedA:
 846 0003 00       		.zero	1
 847 0004 00000000 		.zero	4
 850              	threads:
 851 0008 00000000 		.zero	32
 851      00000000 
 851      00000000 
 851      00000000 
 851      00000000 
 852              		.text
 853              	.Letext0:
 854              		.file 2 "test/../h/../lib/hw.h"
 855              		.file 3 "test/../h/Con.h"
 856              		.file 4 "test/../h/TCB.h"
 857              		.file 5 "test/../h/syscall_c.hpp"
 858              		.file 6 "test/../h/printing.hpp"
GAS LISTING /tmp/cccuIJwW.s 			page 23


DEFINED SYMBOLS
                            *ABS*:0000000000000000 Threads_C_API_test.cpp
     /tmp/cccuIJwW.s:8      .text:0000000000000000 _ZL9fibonaccim
     /tmp/cccuIJwW.s:12     .text:0000000000000000 .L0 
     /tmp/cccuIJwW.s:14     .text:0000000000000000 .L0 
     /tmp/cccuIJwW.s:15     .text:0000000000000004 .L0 
     /tmp/cccuIJwW.s:20     .text:0000000000000014 .L0 
     /tmp/cccuIJwW.s:21     .text:0000000000000014 .L0 
     /tmp/cccuIJwW.s:22     .text:0000000000000014 .L0 
     /tmp/cccuIJwW.s:23     .text:0000000000000014 .L0 
     /tmp/cccuIJwW.s:25     .text:0000000000000018 .L0 
     /tmp/cccuIJwW.s:28     .text:000000000000001c .L0 
     /tmp/cccuIJwW.s:31     .text:0000000000000024 .L0 
     /tmp/cccuIJwW.s:32     .text:0000000000000024 .L0 
     /tmp/cccuIJwW.s:35     .text:000000000000002c .L0 
     /tmp/cccuIJwW.s:39     .text:0000000000000030 .L0 
     /tmp/cccuIJwW.s:40     .text:0000000000000030 .L0 
     /tmp/cccuIJwW.s:45     .text:0000000000000040 .L0 
     /tmp/cccuIJwW.s:49     .text:000000000000004c .L0 
     /tmp/cccuIJwW.s:52     .text:0000000000000050 .L0 
     /tmp/cccuIJwW.s:53     .text:0000000000000054 .L0 
     /tmp/cccuIJwW.s:54     .text:0000000000000054 .L0 
     /tmp/cccuIJwW.s:56     .text:0000000000000058 .L0 
     /tmp/cccuIJwW.s:57     .text:0000000000000058 .L0 
     /tmp/cccuIJwW.s:59     .text:000000000000005c .L0 
     /tmp/cccuIJwW.s:62     .text:0000000000000060 .L0 
     /tmp/cccuIJwW.s:64     .text:0000000000000064 .L0 
     /tmp/cccuIJwW.s:68     .text:0000000000000068 .L0 
     /tmp/cccuIJwW.s:70     .text:0000000000000068 .L0 
     /tmp/cccuIJwW.s:71     .text:0000000000000068 .L0 
     /tmp/cccuIJwW.s:74     .text:0000000000000074 .L0 
     /tmp/cccuIJwW.s:96     .text:0000000000000074 _ZL11workerBodyDPv
     /tmp/cccuIJwW.s:99     .text:0000000000000074 .L0 
     /tmp/cccuIJwW.s:101    .text:0000000000000074 .L0 
     /tmp/cccuIJwW.s:102    .text:0000000000000078 .L0 
     /tmp/cccuIJwW.s:107    .text:0000000000000088 .L0 
     /tmp/cccuIJwW.s:108    .text:0000000000000088 .L0 
     /tmp/cccuIJwW.s:109    .text:0000000000000088 .L0 
     /tmp/cccuIJwW.s:110    .text:0000000000000088 .L0 
     /tmp/cccuIJwW.s:112    .text:000000000000008c .L0 
     /tmp/cccuIJwW.s:115    .text:000000000000008c .L0 
     /tmp/cccuIJwW.s:116    .text:000000000000008c .L0 
     /tmp/cccuIJwW.s:121    .text:0000000000000094 .L0 
     /tmp/cccuIJwW.s:122    .text:0000000000000094 .L0 
     /tmp/cccuIJwW.s:126    .text:00000000000000a4 .L0 
     /tmp/cccuIJwW.s:127    .text:00000000000000a4 .L0 
     /tmp/cccuIJwW.s:133    .text:00000000000000b8 .L0 
     /tmp/cccuIJwW.s:134    .text:00000000000000b8 .L0 
     /tmp/cccuIJwW.s:138    .text:00000000000000c8 .L0 
     /tmp/cccuIJwW.s:144    .text:00000000000000d0 .L0 
     /tmp/cccuIJwW.s:145    .text:00000000000000d0 .L0 
     /tmp/cccuIJwW.s:148    .text:00000000000000d8 .L0 
     /tmp/cccuIJwW.s:149    .text:00000000000000d8 .L0 
     /tmp/cccuIJwW.s:153    .text:00000000000000e8 .L0 
test/Threads_C_API_test.cpp:82     .text:00000000000000e8 .L0 
     /tmp/cccuIJwW.s:159    .text:00000000000000ec .L0 
     /tmp/cccuIJwW.s:161    .text:00000000000000ec .L0 
GAS LISTING /tmp/cccuIJwW.s 			page 24


     /tmp/cccuIJwW.s:164    .text:00000000000000f4 .L0 
     /tmp/cccuIJwW.s:165    .text:00000000000000f4 .L0 
     /tmp/cccuIJwW.s:171    .text:0000000000000104 .L0 
     /tmp/cccuIJwW.s:172    .text:0000000000000104 .L0 
     /tmp/cccuIJwW.s:177    .text:0000000000000114 .L0 
     /tmp/cccuIJwW.s:178    .text:0000000000000114 .L0 
     /tmp/cccuIJwW.s:184    .text:0000000000000128 .L0 
     /tmp/cccuIJwW.s:185    .text:0000000000000128 .L0 
     /tmp/cccuIJwW.s:191    .text:000000000000013c .L0 
     /tmp/cccuIJwW.s:192    .text:000000000000013c .L0 
     /tmp/cccuIJwW.s:196    .text:000000000000014c .L0 
     /tmp/cccuIJwW.s:197    .text:000000000000014c .L0 
     /tmp/cccuIJwW.s:203    .text:0000000000000160 .L0 
     /tmp/cccuIJwW.s:204    .text:0000000000000160 .L0 
     /tmp/cccuIJwW.s:208    .text:0000000000000170 .L0 
     /tmp/cccuIJwW.s:214    .text:0000000000000178 .L0 
     /tmp/cccuIJwW.s:215    .text:0000000000000178 .L0 
     /tmp/cccuIJwW.s:218    .text:0000000000000180 .L0 
     /tmp/cccuIJwW.s:219    .text:0000000000000180 .L0 
     /tmp/cccuIJwW.s:223    .text:0000000000000190 .L0 
     /tmp/cccuIJwW.s:224    .text:0000000000000190 .L0 
     /tmp/cccuIJwW.s:227    .text:000000000000019c .L0 
     /tmp/cccuIJwW.s:228    .text:000000000000019c .L0 
     /tmp/cccuIJwW.s:231    .text:00000000000001a4 .L0 
     /tmp/cccuIJwW.s:232    .text:00000000000001a8 .L0 
     /tmp/cccuIJwW.s:234    .text:00000000000001ac .L0 
     /tmp/cccuIJwW.s:235    .text:00000000000001ac .L0 
     /tmp/cccuIJwW.s:237    .text:00000000000001b0 .L0 
     /tmp/cccuIJwW.s:240    .text:00000000000001b4 .L0 
     /tmp/cccuIJwW.s:243    .text:00000000000001b8 .L0 
     /tmp/cccuIJwW.s:245    .text:00000000000001bc .L0 
     /tmp/cccuIJwW.s:267    .text:00000000000001bc _ZL11workerBodyCPv
     /tmp/cccuIJwW.s:270    .text:00000000000001bc .L0 
     /tmp/cccuIJwW.s:272    .text:00000000000001bc .L0 
     /tmp/cccuIJwW.s:273    .text:00000000000001c0 .L0 
     /tmp/cccuIJwW.s:278    .text:00000000000001d0 .L0 
     /tmp/cccuIJwW.s:279    .text:00000000000001d0 .L0 
     /tmp/cccuIJwW.s:280    .text:00000000000001d0 .L0 
     /tmp/cccuIJwW.s:281    .text:00000000000001d0 .L0 
     /tmp/cccuIJwW.s:283    .text:00000000000001d4 .L0 
     /tmp/cccuIJwW.s:286    .text:00000000000001d4 .L0 
     /tmp/cccuIJwW.s:287    .text:00000000000001d4 .L0 
     /tmp/cccuIJwW.s:292    .text:00000000000001dc .L0 
     /tmp/cccuIJwW.s:293    .text:00000000000001dc .L0 
     /tmp/cccuIJwW.s:297    .text:00000000000001ec .L0 
     /tmp/cccuIJwW.s:298    .text:00000000000001ec .L0 
     /tmp/cccuIJwW.s:304    .text:0000000000000200 .L0 
     /tmp/cccuIJwW.s:305    .text:0000000000000200 .L0 
     /tmp/cccuIJwW.s:309    .text:0000000000000210 .L0 
     /tmp/cccuIJwW.s:315    .text:0000000000000218 .L0 
     /tmp/cccuIJwW.s:316    .text:0000000000000218 .L0 
     /tmp/cccuIJwW.s:319    .text:0000000000000220 .L0 
     /tmp/cccuIJwW.s:320    .text:0000000000000220 .L0 
     /tmp/cccuIJwW.s:324    .text:0000000000000230 .L0 
test/Threads_C_API_test.cpp:55     .text:0000000000000230 .L0 
     /tmp/cccuIJwW.s:330    .text:0000000000000234 .L0 
     /tmp/cccuIJwW.s:332    .text:0000000000000234 .L0 
GAS LISTING /tmp/cccuIJwW.s 			page 25


     /tmp/cccuIJwW.s:335    .text:000000000000023c .L0 
     /tmp/cccuIJwW.s:336    .text:000000000000023c .L0 
test/Threads_C_API_test.cpp:59     .text:000000000000023c .L0 
     /tmp/cccuIJwW.s:343    .text:0000000000000240 .L0 
     /tmp/cccuIJwW.s:345    .text:0000000000000240 .L0 
     /tmp/cccuIJwW.s:349    .text:0000000000000250 .L0 
     /tmp/cccuIJwW.s:350    .text:0000000000000250 .L0 
     /tmp/cccuIJwW.s:356    .text:0000000000000264 .L0 
     /tmp/cccuIJwW.s:357    .text:0000000000000264 .L0 
     /tmp/cccuIJwW.s:361    .text:0000000000000274 .L0 
     /tmp/cccuIJwW.s:362    .text:0000000000000274 .L0 
     /tmp/cccuIJwW.s:368    .text:0000000000000284 .L0 
     /tmp/cccuIJwW.s:369    .text:0000000000000284 .L0 
     /tmp/cccuIJwW.s:374    .text:0000000000000294 .L0 
     /tmp/cccuIJwW.s:375    .text:0000000000000294 .L0 
     /tmp/cccuIJwW.s:381    .text:00000000000002a8 .L0 
     /tmp/cccuIJwW.s:382    .text:00000000000002a8 .L0 
     /tmp/cccuIJwW.s:388    .text:00000000000002bc .L0 
     /tmp/cccuIJwW.s:389    .text:00000000000002bc .L0 
     /tmp/cccuIJwW.s:393    .text:00000000000002cc .L0 
     /tmp/cccuIJwW.s:394    .text:00000000000002cc .L0 
     /tmp/cccuIJwW.s:400    .text:00000000000002e0 .L0 
     /tmp/cccuIJwW.s:401    .text:00000000000002e0 .L0 
     /tmp/cccuIJwW.s:405    .text:00000000000002f0 .L0 
     /tmp/cccuIJwW.s:411    .text:00000000000002f8 .L0 
     /tmp/cccuIJwW.s:412    .text:00000000000002f8 .L0 
     /tmp/cccuIJwW.s:415    .text:0000000000000300 .L0 
     /tmp/cccuIJwW.s:416    .text:0000000000000300 .L0 
     /tmp/cccuIJwW.s:420    .text:0000000000000310 .L0 
     /tmp/cccuIJwW.s:421    .text:0000000000000310 .L0 
     /tmp/cccuIJwW.s:424    .text:000000000000031c .L0 
     /tmp/cccuIJwW.s:425    .text:000000000000031c .L0 
     /tmp/cccuIJwW.s:428    .text:0000000000000324 .L0 
     /tmp/cccuIJwW.s:429    .text:0000000000000328 .L0 
     /tmp/cccuIJwW.s:431    .text:000000000000032c .L0 
     /tmp/cccuIJwW.s:432    .text:000000000000032c .L0 
     /tmp/cccuIJwW.s:434    .text:0000000000000330 .L0 
     /tmp/cccuIJwW.s:437    .text:0000000000000334 .L0 
     /tmp/cccuIJwW.s:440    .text:0000000000000338 .L0 
     /tmp/cccuIJwW.s:442    .text:000000000000033c .L0 
     /tmp/cccuIJwW.s:455    .text:000000000000033c _ZL11workerBodyBPv
     /tmp/cccuIJwW.s:458    .text:000000000000033c .L0 
     /tmp/cccuIJwW.s:460    .text:000000000000033c .L0 
     /tmp/cccuIJwW.s:461    .text:0000000000000340 .L0 
     /tmp/cccuIJwW.s:466    .text:0000000000000350 .L0 
     /tmp/cccuIJwW.s:467    .text:0000000000000350 .L0 
     /tmp/cccuIJwW.s:468    .text:0000000000000350 .L0 
     /tmp/cccuIJwW.s:469    .text:0000000000000350 .L0 
     /tmp/cccuIJwW.s:471    .text:0000000000000354 .L0 
     /tmp/cccuIJwW.s:475    .text:0000000000000354 .L0 
     /tmp/cccuIJwW.s:476    .text:0000000000000354 .L0 
     /tmp/cccuIJwW.s:484    .text:000000000000035c .L0 
     /tmp/cccuIJwW.s:485    .text:000000000000035c .L0 
     /tmp/cccuIJwW.s:489    .text:0000000000000364 .L0 
     /tmp/cccuIJwW.s:493    .text:0000000000000368 .L0 
     /tmp/cccuIJwW.s:499    .text:0000000000000374 .L0 
     /tmp/cccuIJwW.s:503    .text:0000000000000378 .L0 
GAS LISTING /tmp/cccuIJwW.s 			page 26


     /tmp/cccuIJwW.s:507    .text:0000000000000384 .L0 
     /tmp/cccuIJwW.s:517    .text:000000000000038c .L0 
     /tmp/cccuIJwW.s:521    .text:0000000000000390 .L0 
     /tmp/cccuIJwW.s:525    .text:0000000000000398 .L0 
     /tmp/cccuIJwW.s:526    .text:0000000000000398 .L0 
     /tmp/cccuIJwW.s:530    .text:00000000000003a8 .L0 
     /tmp/cccuIJwW.s:531    .text:00000000000003a8 .L0 
     /tmp/cccuIJwW.s:537    .text:00000000000003bc .L0 
     /tmp/cccuIJwW.s:538    .text:00000000000003bc .L0 
     /tmp/cccuIJwW.s:543    .text:00000000000003cc .L0 
     /tmp/cccuIJwW.s:544    .text:00000000000003cc .L0 
     /tmp/cccuIJwW.s:552    .text:00000000000003d4 .L0 
     /tmp/cccuIJwW.s:553    .text:00000000000003d4 .L0 
     /tmp/cccuIJwW.s:557    .text:00000000000003e4 .L0 
     /tmp/cccuIJwW.s:558    .text:00000000000003e4 .L0 
     /tmp/cccuIJwW.s:561    .text:00000000000003f0 .L0 
     /tmp/cccuIJwW.s:562    .text:00000000000003f0 .L0 
     /tmp/cccuIJwW.s:565    .text:00000000000003f8 .L0 
     /tmp/cccuIJwW.s:566    .text:00000000000003fc .L0 
     /tmp/cccuIJwW.s:568    .text:0000000000000400 .L0 
     /tmp/cccuIJwW.s:569    .text:0000000000000400 .L0 
     /tmp/cccuIJwW.s:571    .text:0000000000000404 .L0 
     /tmp/cccuIJwW.s:573    .text:0000000000000408 .L0 
     /tmp/cccuIJwW.s:576    .text:000000000000040c .L0 
     /tmp/cccuIJwW.s:578    .text:0000000000000410 .L0 
     /tmp/cccuIJwW.s:591    .text:0000000000000410 _ZL11workerBodyAPv
     /tmp/cccuIJwW.s:594    .text:0000000000000410 .L0 
     /tmp/cccuIJwW.s:596    .text:0000000000000410 .L0 
     /tmp/cccuIJwW.s:597    .text:0000000000000414 .L0 
     /tmp/cccuIJwW.s:602    .text:0000000000000424 .L0 
     /tmp/cccuIJwW.s:603    .text:0000000000000424 .L0 
     /tmp/cccuIJwW.s:604    .text:0000000000000424 .L0 
     /tmp/cccuIJwW.s:605    .text:0000000000000424 .L0 
     /tmp/cccuIJwW.s:607    .text:0000000000000428 .L0 
     /tmp/cccuIJwW.s:611    .text:0000000000000428 .L0 
     /tmp/cccuIJwW.s:612    .text:0000000000000428 .L0 
     /tmp/cccuIJwW.s:620    .text:0000000000000430 .L0 
     /tmp/cccuIJwW.s:621    .text:0000000000000430 .L0 
     /tmp/cccuIJwW.s:625    .text:0000000000000438 .L0 
     /tmp/cccuIJwW.s:629    .text:000000000000043c .L0 
     /tmp/cccuIJwW.s:635    .text:0000000000000448 .L0 
     /tmp/cccuIJwW.s:639    .text:000000000000044c .L0 
     /tmp/cccuIJwW.s:643    .text:0000000000000458 .L0 
     /tmp/cccuIJwW.s:653    .text:0000000000000460 .L0 
     /tmp/cccuIJwW.s:657    .text:0000000000000464 .L0 
     /tmp/cccuIJwW.s:661    .text:000000000000046c .L0 
     /tmp/cccuIJwW.s:662    .text:000000000000046c .L0 
     /tmp/cccuIJwW.s:666    .text:000000000000047c .L0 
     /tmp/cccuIJwW.s:667    .text:000000000000047c .L0 
     /tmp/cccuIJwW.s:673    .text:0000000000000490 .L0 
     /tmp/cccuIJwW.s:674    .text:0000000000000490 .L0 
     /tmp/cccuIJwW.s:679    .text:00000000000004a0 .L0 
     /tmp/cccuIJwW.s:680    .text:00000000000004a0 .L0 
     /tmp/cccuIJwW.s:688    .text:00000000000004a8 .L0 
     /tmp/cccuIJwW.s:689    .text:00000000000004a8 .L0 
     /tmp/cccuIJwW.s:693    .text:00000000000004b8 .L0 
     /tmp/cccuIJwW.s:694    .text:00000000000004b8 .L0 
GAS LISTING /tmp/cccuIJwW.s 			page 27


     /tmp/cccuIJwW.s:697    .text:00000000000004c4 .L0 
     /tmp/cccuIJwW.s:698    .text:00000000000004c8 .L0 
     /tmp/cccuIJwW.s:700    .text:00000000000004cc .L0 
     /tmp/cccuIJwW.s:701    .text:00000000000004cc .L0 
     /tmp/cccuIJwW.s:703    .text:00000000000004d0 .L0 
     /tmp/cccuIJwW.s:705    .text:00000000000004d4 .L0 
     /tmp/cccuIJwW.s:708    .text:00000000000004d8 .L0 
     /tmp/cccuIJwW.s:710    .text:00000000000004dc .L0 
     /tmp/cccuIJwW.s:730    .text:00000000000004dc _Z18Threads_C_API_testv
     /tmp/cccuIJwW.s:733    .text:00000000000004dc .L0 
     /tmp/cccuIJwW.s:734    .text:00000000000004dc .L0 
     /tmp/cccuIJwW.s:735    .text:00000000000004e0 .L0 
     /tmp/cccuIJwW.s:738    .text:00000000000004e8 .L0 
     /tmp/cccuIJwW.s:739    .text:00000000000004e8 .L0 
     /tmp/cccuIJwW.s:741    .text:00000000000004ec .L0 
     /tmp/cccuIJwW.s:743    .text:00000000000004ec .L0 
     /tmp/cccuIJwW.s:744    .text:00000000000004ec .L0 
     /tmp/cccuIJwW.s:750    .text:0000000000000508 .L0 
     /tmp/cccuIJwW.s:751    .text:0000000000000508 .L0 
     /tmp/cccuIJwW.s:755    .text:0000000000000518 .L0 
     /tmp/cccuIJwW.s:756    .text:0000000000000518 .L0 
     /tmp/cccuIJwW.s:762    .text:0000000000000534 .L0 
     /tmp/cccuIJwW.s:763    .text:0000000000000534 .L0 
     /tmp/cccuIJwW.s:767    .text:0000000000000544 .L0 
     /tmp/cccuIJwW.s:768    .text:0000000000000544 .L0 
     /tmp/cccuIJwW.s:774    .text:0000000000000560 .L0 
     /tmp/cccuIJwW.s:775    .text:0000000000000560 .L0 
     /tmp/cccuIJwW.s:779    .text:0000000000000570 .L0 
     /tmp/cccuIJwW.s:780    .text:0000000000000570 .L0 
     /tmp/cccuIJwW.s:786    .text:000000000000058c .L0 
     /tmp/cccuIJwW.s:787    .text:000000000000058c .L0 
     /tmp/cccuIJwW.s:793    .text:00000000000005a0 .L0 
     /tmp/cccuIJwW.s:794    .text:00000000000005a0 .L0 
     /tmp/cccuIJwW.s:798    .text:00000000000005a8 .L0 
     /tmp/cccuIJwW.s:799    .text:00000000000005a8 .L0 
     /tmp/cccuIJwW.s:800    .text:00000000000005a8 .L0 
     /tmp/cccuIJwW.s:802    .text:00000000000005b0 .L0 
     /tmp/cccuIJwW.s:804    .text:00000000000005b4 .L0 
     /tmp/cccuIJwW.s:806    .text:00000000000005bc .L0 
     /tmp/cccuIJwW.s:808    .text:00000000000005c0 .L0 
     /tmp/cccuIJwW.s:810    .text:00000000000005c8 .L0 
     /tmp/cccuIJwW.s:812    .text:00000000000005cc .L0 
     /tmp/cccuIJwW.s:814    .text:00000000000005d4 .L0 
     /tmp/cccuIJwW.s:816    .text:00000000000005d8 .L0 
     /tmp/cccuIJwW.s:817    .text:00000000000005dc .L0 
     /tmp/cccuIJwW.s:819    .text:00000000000005e0 .L0 
     /tmp/cccuIJwW.s:820    .text:00000000000005e0 .L0 
     /tmp/cccuIJwW.s:822    .text:00000000000005e4 .L0 
     /tmp/cccuIJwW.s:824    .text:00000000000005e8 .L0 
     /tmp/cccuIJwW.s:850    .bss:0000000000000008 threads
     /tmp/cccuIJwW.s:830    .bss:0000000000000000 .LANCHOR0
     /tmp/cccuIJwW.s:833    .bss:0000000000000000 _ZL9finishedD
     /tmp/cccuIJwW.s:837    .bss:0000000000000001 _ZL9finishedC
     /tmp/cccuIJwW.s:841    .bss:0000000000000002 _ZL9finishedB
     /tmp/cccuIJwW.s:845    .bss:0000000000000003 _ZL9finishedA
     /tmp/cccuIJwW.s:859    .text:00000000000005e8 .L0 
     /tmp/cccuIJwW.s:79     .rodata.str1.8:0000000000000000 .LC0
GAS LISTING /tmp/cccuIJwW.s 			page 28


     /tmp/cccuIJwW.s:122    .text:0000000000000094 .L0 
     /tmp/cccuIJwW.s:82     .rodata.str1.8:0000000000000008 .LC1
     /tmp/cccuIJwW.s:134    .text:00000000000000b8 .L0 
     /tmp/cccuIJwW.s:85     .rodata.str1.8:0000000000000010 .LC2
     /tmp/cccuIJwW.s:149    .text:00000000000000d8 .L0 
     /tmp/cccuIJwW.s:88     .rodata.str1.8:0000000000000020 .LC3
     /tmp/cccuIJwW.s:172    .text:0000000000000104 .L0 
     /tmp/cccuIJwW.s:185    .text:0000000000000128 .L0 
     /tmp/cccuIJwW.s:192    .text:000000000000013c .L0 
     /tmp/cccuIJwW.s:204    .text:0000000000000160 .L0 
     /tmp/cccuIJwW.s:91     .rodata.str1.8:0000000000000030 .LC4
     /tmp/cccuIJwW.s:219    .text:0000000000000180 .L0 
     /tmp/cccuIJwW.s:225    .text:0000000000000194 .L0 
     /tmp/cccuIJwW.s:250    .rodata.str1.8:0000000000000040 .LC5
     /tmp/cccuIJwW.s:293    .text:00000000000001dc .L0 
     /tmp/cccuIJwW.s:305    .text:0000000000000200 .L0 
     /tmp/cccuIJwW.s:253    .rodata.str1.8:0000000000000048 .LC6
     /tmp/cccuIJwW.s:320    .text:0000000000000220 .L0 
     /tmp/cccuIJwW.s:256    .rodata.str1.8:0000000000000058 .LC7
     /tmp/cccuIJwW.s:345    .text:0000000000000240 .L0 
     /tmp/cccuIJwW.s:357    .text:0000000000000264 .L0 
     /tmp/cccuIJwW.s:259    .rodata.str1.8:0000000000000060 .LC8
     /tmp/cccuIJwW.s:369    .text:0000000000000284 .L0 
     /tmp/cccuIJwW.s:382    .text:00000000000002a8 .L0 
     /tmp/cccuIJwW.s:389    .text:00000000000002bc .L0 
     /tmp/cccuIJwW.s:401    .text:00000000000002e0 .L0 
     /tmp/cccuIJwW.s:262    .rodata.str1.8:0000000000000070 .LC9
     /tmp/cccuIJwW.s:416    .text:0000000000000300 .L0 
     /tmp/cccuIJwW.s:422    .text:0000000000000314 .L0 
     /tmp/cccuIJwW.s:447    .rodata.str1.8:0000000000000080 .LC10
     /tmp/cccuIJwW.s:526    .text:0000000000000398 .L0 
     /tmp/cccuIJwW.s:538    .text:00000000000003bc .L0 
     /tmp/cccuIJwW.s:450    .rodata.str1.8:0000000000000088 .LC11
     /tmp/cccuIJwW.s:553    .text:00000000000003d4 .L0 
     /tmp/cccuIJwW.s:559    .text:00000000000003e8 .L0 
     /tmp/cccuIJwW.s:583    .rodata.str1.8:0000000000000098 .LC12
     /tmp/cccuIJwW.s:662    .text:000000000000046c .L0 
     /tmp/cccuIJwW.s:674    .text:0000000000000490 .L0 
     /tmp/cccuIJwW.s:586    .rodata.str1.8:00000000000000a0 .LC13
     /tmp/cccuIJwW.s:689    .text:00000000000004a8 .L0 
     /tmp/cccuIJwW.s:695    .text:00000000000004bc .L0 
     /tmp/cccuIJwW.s:745    .text:00000000000004f0 .L0 
     /tmp/cccuIJwW.s:746    .text:00000000000004f8 .L0 
     /tmp/cccuIJwW.s:715    .rodata.str1.8:00000000000000b0 .LC14
     /tmp/cccuIJwW.s:751    .text:0000000000000508 .L0 
     /tmp/cccuIJwW.s:757    .text:000000000000051c .L0 
     /tmp/cccuIJwW.s:758    .text:0000000000000524 .L0 
     /tmp/cccuIJwW.s:718    .rodata.str1.8:00000000000000c8 .LC15
     /tmp/cccuIJwW.s:763    .text:0000000000000534 .L0 
     /tmp/cccuIJwW.s:769    .text:0000000000000548 .L0 
     /tmp/cccuIJwW.s:770    .text:0000000000000550 .L0 
     /tmp/cccuIJwW.s:721    .rodata.str1.8:00000000000000e0 .LC16
     /tmp/cccuIJwW.s:775    .text:0000000000000560 .L0 
     /tmp/cccuIJwW.s:781    .text:0000000000000574 .L0 
     /tmp/cccuIJwW.s:782    .text:000000000000057c .L0 
     /tmp/cccuIJwW.s:724    .rodata.str1.8:00000000000000f8 .LC17
     /tmp/cccuIJwW.s:787    .text:000000000000058c .L0 
GAS LISTING /tmp/cccuIJwW.s 			page 29


     /tmp/cccuIJwW.s:800    .text:00000000000005a8 .L0 
     /tmp/cccuIJwW.s:804    .text:00000000000005b4 .L0 
     /tmp/cccuIJwW.s:808    .text:00000000000005c0 .L0 
     /tmp/cccuIJwW.s:812    .text:00000000000005cc .L0 
     /tmp/cccuIJwW.s:50     .text:0000000000000050 .L1
     /tmp/cccuIJwW.s:67     .text:0000000000000068 .L6
     /tmp/cccuIJwW.s:37     .text:0000000000000030 .L3
     /tmp/cccuIJwW.s:142    .text:00000000000000d0 .L9
     /tmp/cccuIJwW.s:119    .text:0000000000000094 .L13
     /tmp/cccuIJwW.s:212    .text:0000000000000178 .L11
     /tmp/cccuIJwW.s:189    .text:000000000000013c .L14
     /tmp/cccuIJwW.s:313    .text:0000000000000218 .L17
     /tmp/cccuIJwW.s:290    .text:00000000000001dc .L21
     /tmp/cccuIJwW.s:409    .text:00000000000002f8 .L19
     /tmp/cccuIJwW.s:386    .text:00000000000002bc .L22
     /tmp/cccuIJwW.s:519    .text:0000000000000390 .L29
     /tmp/cccuIJwW.s:511    .text:000000000000038c .L25
     /tmp/cccuIJwW.s:479    .text:000000000000035c .L26
     /tmp/cccuIJwW.s:500    .text:0000000000000378 .L27
     /tmp/cccuIJwW.s:547    .text:00000000000003d4 .L24
     /tmp/cccuIJwW.s:491    .text:0000000000000368 .L28
     /tmp/cccuIJwW.s:655    .text:0000000000000464 .L37
     /tmp/cccuIJwW.s:647    .text:0000000000000460 .L33
     /tmp/cccuIJwW.s:615    .text:0000000000000430 .L34
     /tmp/cccuIJwW.s:636    .text:000000000000044c .L35
     /tmp/cccuIJwW.s:683    .text:00000000000004a8 .L32
     /tmp/cccuIJwW.s:627    .text:000000000000043c .L36
     /tmp/cccuIJwW.s:796    .text:00000000000005a8 .L41
     /tmp/cccuIJwW.s:791    .text:00000000000005a0 .L40
     /tmp/cccuIJwW.s:2337   .debug_abbrev:0000000000000000 .Ldebug_abbrev0
     /tmp/cccuIJwW.s:3521   .debug_str:00000000000004c7 .LASF85
     /tmp/cccuIJwW.s:3437   .debug_str:000000000000020a .LASF86
     /tmp/cccuIJwW.s:3403   .debug_str:000000000000010e .LASF87
     /tmp/cccuIJwW.s:5      .text:0000000000000000 .Ltext0
     /tmp/cccuIJwW.s:853    .text:00000000000005e8 .Letext0
     /tmp/cccuIJwW.s:3367   .debug_line:0000000000000000 .Ldebug_line0
     /tmp/cccuIJwW.s:3469   .debug_str:000000000000030c .LASF0
     /tmp/cccuIJwW.s:3481   .debug_str:0000000000000358 .LASF1
     /tmp/cccuIJwW.s:3459   .debug_str:00000000000002b7 .LASF2
     /tmp/cccuIJwW.s:3413   .debug_str:0000000000000174 .LASF3
     /tmp/cccuIJwW.s:3445   .debug_str:0000000000000264 .LASF4
     /tmp/cccuIJwW.s:3507   .debug_str:0000000000000455 .LASF5
     /tmp/cccuIJwW.s:3393   .debug_str:00000000000000c3 .LASF6
     /tmp/cccuIJwW.s:3411   .debug_str:000000000000016d .LASF7
     /tmp/cccuIJwW.s:3487   .debug_str:000000000000039b .LASF8
     /tmp/cccuIJwW.s:3467   .debug_str:00000000000002f9 .LASF9
     /tmp/cccuIJwW.s:3533   .debug_str:00000000000005e2 .LASF10
     /tmp/cccuIJwW.s:3435   .debug_str:00000000000001fc .LASF11
     /tmp/cccuIJwW.s:3495   .debug_str:00000000000003d9 .LASF12
     /tmp/cccuIJwW.s:3523   .debug_str:000000000000058b .LASF13
     /tmp/cccuIJwW.s:3395   .debug_str:00000000000000ca .LASF14
     /tmp/cccuIJwW.s:3381   .debug_str:0000000000000057 .LASF15
     /tmp/cccuIJwW.s:3397   .debug_str:00000000000000da .LASF16
     /tmp/cccuIJwW.s:3503   .debug_str:0000000000000432 .LASF17
     /tmp/cccuIJwW.s:3405   .debug_str:0000000000000131 .LASF18
     /tmp/cccuIJwW.s:3421   .debug_str:000000000000019e .LASF19
     /tmp/cccuIJwW.s:3491   .debug_str:00000000000003c7 .LASF20
GAS LISTING /tmp/cccuIJwW.s 			page 30


     /tmp/cccuIJwW.s:3555   .debug_str:0000000000000675 .LASF21
     /tmp/cccuIJwW.s:3439   .debug_str:0000000000000226 .LASF25
     /tmp/cccuIJwW.s:3479   .debug_str:0000000000000351 .LASF22
     /tmp/cccuIJwW.s:3553   .debug_str:0000000000000670 .LASF23
     /tmp/cccuIJwW.s:3541   .debug_str:0000000000000617 .LASF24
     /tmp/cccuIJwW.s:3489   .debug_str:00000000000003ae .LASF35
     /tmp/cccuIJwW.s:3387   .debug_str:0000000000000088 .LASF26
     /tmp/cccuIJwW.s:3453   .debug_str:0000000000000289 .LASF27
     /tmp/cccuIJwW.s:3475   .debug_str:000000000000032b .LASF28
     /tmp/cccuIJwW.s:3529   .debug_str:00000000000005cb .LASF29
     /tmp/cccuIJwW.s:3473   .debug_str:0000000000000325 .LASF30
     /tmp/cccuIJwW.s:3451   .debug_str:0000000000000280 .LASF31
     /tmp/cccuIJwW.s:3371   .debug_str:0000000000000009 .LASF32
     /tmp/cccuIJwW.s:3509   .debug_str:0000000000000467 .LASF33
     /tmp/cccuIJwW.s:3517   .debug_str:00000000000004a0 .LASF37
     /tmp/cccuIJwW.s:3461   .debug_str:00000000000002c5 .LASF47
     /tmp/cccuIJwW.s:3419   .debug_str:000000000000018f .LASF34
     /tmp/cccuIJwW.s:3477   .debug_str:0000000000000335 .LASF36
     /tmp/cccuIJwW.s:3549   .debug_str:000000000000064d .LASF88
     /tmp/cccuIJwW.s:3537   .debug_str:00000000000005fc .LASF38
     /tmp/cccuIJwW.s:3441   .debug_str:0000000000000232 .LASF39
     /tmp/cccuIJwW.s:3515   .debug_str:0000000000000498 .LASF89
     /tmp/cccuIJwW.s:3511   .debug_str:0000000000000473 .LASF90
     /tmp/cccuIJwW.s:3539   .debug_str:000000000000060a .LASF40
     /tmp/cccuIJwW.s:3417   .debug_str:0000000000000187 .LASF41
     /tmp/cccuIJwW.s:3449   .debug_str:0000000000000275 .LASF42
     /tmp/cccuIJwW.s:3527   .debug_str:00000000000005b5 .LASF44
     /tmp/cccuIJwW.s:3433   .debug_str:00000000000001ed .LASF43
     /tmp/cccuIJwW.s:3377   .debug_str:0000000000000022 .LASF45
     /tmp/cccuIJwW.s:3543   .debug_str:000000000000061c .LASF91
     /tmp/cccuIJwW.s:3423   .debug_str:00000000000001a3 .LASF92
     /tmp/cccuIJwW.s:3547   .debug_str:000000000000063c .LASF60
     /tmp/cccuIJwW.s:3501   .debug_str:0000000000000416 .LASF62
     /tmp/cccuIJwW.s:3415   .debug_str:000000000000017a .LASF46
     /tmp/cccuIJwW.s:3389   .debug_str:0000000000000090 .LASF48
     /tmp/cccuIJwW.s:3551   .debug_str:0000000000000664 .LASF49
     /tmp/cccuIJwW.s:3383   .debug_str:0000000000000067 .LASF50
     /tmp/cccuIJwW.s:3531   .debug_str:00000000000005d5 .LASF51
     /tmp/cccuIJwW.s:3525   .debug_str:000000000000059a .LASF52
     /tmp/cccuIJwW.s:3457   .debug_str:00000000000002aa .LASF56
     /tmp/cccuIJwW.s:3391   .debug_str:00000000000000aa .LASF58
     /tmp/cccuIJwW.s:3373   .debug_str:0000000000000011 .LASF53
     /tmp/cccuIJwW.s:3493   .debug_str:00000000000003cc .LASF54
     /tmp/cccuIJwW.s:3519   .debug_str:00000000000004af .LASF55
     /tmp/cccuIJwW.s:3505   .debug_str:0000000000000448 .LASF57
     /tmp/cccuIJwW.s:3399   .debug_str:00000000000000e6 .LASF59
     /tmp/cccuIJwW.s:3455   .debug_str:0000000000000291 .LASF61
     /tmp/cccuIJwW.s:3499   .debug_str:00000000000003f2 .LASF63
     /tmp/cccuIJwW.s:3369   .debug_str:0000000000000000 .LASF64
     /tmp/cccuIJwW.s:3497   .debug_str:00000000000003e8 .LASF65
     /tmp/cccuIJwW.s:3443   .debug_str:000000000000025a .LASF66
     /tmp/cccuIJwW.s:3385   .debug_str:000000000000007e .LASF67
     /tmp/cccuIJwW.s:3447   .debug_str:000000000000026b .LASF68
     /tmp/cccuIJwW.s:3429   .debug_str:00000000000001d9 .LASF69
     /tmp/cccuIJwW.s:3513   .debug_str:0000000000000485 .LASF70
     /tmp/cccuIJwW.s:3409   .debug_str:0000000000000155 .LASF71
     /tmp/cccuIJwW.s:731    .text:00000000000004dc .LFB24
GAS LISTING /tmp/cccuIJwW.s 			page 31


     /tmp/cccuIJwW.s:825    .text:00000000000005e8 .LFE24
     /tmp/cccuIJwW.s:748    .text:0000000000000508 .LVL92
     /tmp/cccuIJwW.s:753    .text:0000000000000518 .LVL93
     /tmp/cccuIJwW.s:760    .text:0000000000000534 .LVL94
     /tmp/cccuIJwW.s:765    .text:0000000000000544 .LVL95
     /tmp/cccuIJwW.s:772    .text:0000000000000560 .LVL96
     /tmp/cccuIJwW.s:777    .text:0000000000000570 .LVL97
     /tmp/cccuIJwW.s:784    .text:000000000000058c .LVL98
     /tmp/cccuIJwW.s:789    .text:000000000000059c .LVL99
     /tmp/cccuIJwW.s:795    .text:00000000000005a8 .LVL100
     /tmp/cccuIJwW.s:3471   .debug_str:0000000000000319 .LASF73
     /tmp/cccuIJwW.s:97     .text:0000000000000074 .LFB23
     /tmp/cccuIJwW.s:246    .text:00000000000001bc .LFE23
     /tmp/cccuIJwW.s:3122   .debug_loc:0000000000000000 .LLST1
     /tmp/cccuIJwW.s:3136   .debug_loc:0000000000000039 .LLST2
     /tmp/cccuIJwW.s:3375   .debug_str:000000000000001b .LASF72
     /tmp/cccuIJwW.s:3156   .debug_loc:0000000000000096 .LLST3
     /tmp/cccuIJwW.s:124    .text:00000000000000a4 .LVL10
     /tmp/cccuIJwW.s:131    .text:00000000000000b8 .LVL11
     /tmp/cccuIJwW.s:136    .text:00000000000000c8 .LVL12
     /tmp/cccuIJwW.s:151    .text:00000000000000e8 .LVL15
     /tmp/cccuIJwW.s:162    .text:00000000000000f4 .LVL16
     /tmp/cccuIJwW.s:167    .text:0000000000000100 .LVL17
     /tmp/cccuIJwW.s:175    .text:0000000000000114 .LVL20
     /tmp/cccuIJwW.s:182    .text:0000000000000128 .LVL21
     /tmp/cccuIJwW.s:187    .text:0000000000000138 .LVL22
     /tmp/cccuIJwW.s:194    .text:000000000000014c .LVL23
     /tmp/cccuIJwW.s:201    .text:0000000000000160 .LVL24
     /tmp/cccuIJwW.s:206    .text:0000000000000170 .LVL25
     /tmp/cccuIJwW.s:221    .text:0000000000000190 .LVL28
     /tmp/cccuIJwW.s:229    .text:00000000000001a4 .LVL29
     /tmp/cccuIJwW.s:3379   .debug_str:000000000000004b .LASF74
     /tmp/cccuIJwW.s:268    .text:00000000000001bc .LFB22
     /tmp/cccuIJwW.s:443    .text:000000000000033c .LFE22
     /tmp/cccuIJwW.s:3167   .debug_loc:00000000000000cc .LLST4
     /tmp/cccuIJwW.s:3181   .debug_loc:0000000000000105 .LLST5
     /tmp/cccuIJwW.s:3201   .debug_loc:0000000000000162 .LLST6
     /tmp/cccuIJwW.s:3209   .debug_loc:0000000000000186 .LLST7
     /tmp/cccuIJwW.s:295    .text:00000000000001ec .LVL35
     /tmp/cccuIJwW.s:302    .text:0000000000000200 .LVL36
     /tmp/cccuIJwW.s:307    .text:0000000000000210 .LVL37
     /tmp/cccuIJwW.s:322    .text:0000000000000230 .LVL40
     /tmp/cccuIJwW.s:333    .text:000000000000023c .LVL41
     /tmp/cccuIJwW.s:347    .text:0000000000000250 .LVL43
     /tmp/cccuIJwW.s:354    .text:0000000000000264 .LVL44
     /tmp/cccuIJwW.s:359    .text:0000000000000274 .LVL45
     /tmp/cccuIJwW.s:364    .text:0000000000000280 .LVL46
     /tmp/cccuIJwW.s:372    .text:0000000000000294 .LVL49
     /tmp/cccuIJwW.s:379    .text:00000000000002a8 .LVL50
     /tmp/cccuIJwW.s:384    .text:00000000000002b8 .LVL51
     /tmp/cccuIJwW.s:391    .text:00000000000002cc .LVL52
     /tmp/cccuIJwW.s:398    .text:00000000000002e0 .LVL53
     /tmp/cccuIJwW.s:403    .text:00000000000002f0 .LVL54
     /tmp/cccuIJwW.s:418    .text:0000000000000310 .LVL57
     /tmp/cccuIJwW.s:426    .text:0000000000000324 .LVL58
     /tmp/cccuIJwW.s:3465   .debug_str:00000000000002ed .LASF75
     /tmp/cccuIJwW.s:456    .text:000000000000033c .LFB21
GAS LISTING /tmp/cccuIJwW.s 			page 32


     /tmp/cccuIJwW.s:579    .text:0000000000000410 .LFE21
     /tmp/cccuIJwW.s:3220   .debug_loc:00000000000001bc .LLST8
     /tmp/cccuIJwW.s:474    .text:0000000000000354 .LBB2
     /tmp/cccuIJwW.s:550    .text:00000000000003d4 .LBE2
     /tmp/cccuIJwW.s:3234   .debug_loc:00000000000001f5 .LLST9
     /tmp/cccuIJwW.s:3353   .debug_ranges:0000000000000000 .Ldebug_ranges0
     /tmp/cccuIJwW.s:3246   .debug_loc:000000000000022c .LLST10
     /tmp/cccuIJwW.s:497    .text:0000000000000374 .LBB6
     /tmp/cccuIJwW.s:512    .text:000000000000038c .LBE6
     /tmp/cccuIJwW.s:3258   .debug_loc:0000000000000263 .LLST11
     /tmp/cccuIJwW.s:486    .text:0000000000000364 .LVL64
     /tmp/cccuIJwW.s:528    .text:00000000000003a8 .LVL70
     /tmp/cccuIJwW.s:535    .text:00000000000003bc .LVL71
     /tmp/cccuIJwW.s:540    .text:00000000000003cc .LVL72
     /tmp/cccuIJwW.s:555    .text:00000000000003e4 .LVL74
     /tmp/cccuIJwW.s:563    .text:00000000000003f8 .LVL75
     /tmp/cccuIJwW.s:3463   .debug_str:00000000000002e1 .LASF76
     /tmp/cccuIJwW.s:592    .text:0000000000000410 .LFB20
     /tmp/cccuIJwW.s:711    .text:00000000000004dc .LFE20
     /tmp/cccuIJwW.s:3269   .debug_loc:0000000000000299 .LLST12
     /tmp/cccuIJwW.s:610    .text:0000000000000428 .LBB10
     /tmp/cccuIJwW.s:686    .text:00000000000004a8 .LBE10
     /tmp/cccuIJwW.s:3283   .debug_loc:00000000000002d2 .LLST13
     /tmp/cccuIJwW.s:3295   .debug_loc:0000000000000309 .LLST14
     /tmp/cccuIJwW.s:633    .text:0000000000000448 .LBB14
     /tmp/cccuIJwW.s:648    .text:0000000000000460 .LBE14
     /tmp/cccuIJwW.s:3307   .debug_loc:0000000000000340 .LLST15
     /tmp/cccuIJwW.s:622    .text:0000000000000438 .LVL80
     /tmp/cccuIJwW.s:664    .text:000000000000047c .LVL86
     /tmp/cccuIJwW.s:671    .text:0000000000000490 .LVL87
     /tmp/cccuIJwW.s:676    .text:00000000000004a0 .LVL88
     /tmp/cccuIJwW.s:691    .text:00000000000004b8 .LVL90
     /tmp/cccuIJwW.s:3535   .debug_str:00000000000005f2 .LASF93
     /tmp/cccuIJwW.s:9      .text:0000000000000000 .LFB19
     /tmp/cccuIJwW.s:75     .text:0000000000000074 .LFE19
     /tmp/cccuIJwW.s:3318   .debug_loc:0000000000000376 .LLST0
     /tmp/cccuIJwW.s:42     .text:000000000000003c .LVL2
     /tmp/cccuIJwW.s:47     .text:000000000000004c .LVL3
     /tmp/cccuIJwW.s:72     .text:0000000000000070 .LVL6
     /tmp/cccuIJwW.s:3485   .debug_str:000000000000037a .LASF77
     /tmp/cccuIJwW.s:3407   .debug_str:0000000000000147 .LASF79
     /tmp/cccuIJwW.s:3545   .debug_str:0000000000000629 .LASF78
     /tmp/cccuIJwW.s:3431   .debug_str:00000000000001e1 .LASF80
     /tmp/cccuIJwW.s:3425   .debug_str:00000000000001bb .LASF81
     /tmp/cccuIJwW.s:3401   .debug_str:00000000000000fe .LASF82
     /tmp/cccuIJwW.s:3483   .debug_str:000000000000036b .LASF83
     /tmp/cccuIJwW.s:3427   .debug_str:00000000000001d0 .LASF84
     /tmp/cccuIJwW.s:100    .text:0000000000000074 .LVL7
     /tmp/cccuIJwW.s:118    .text:0000000000000094 .LVL9
     /tmp/cccuIJwW.s:114    .text:000000000000008c .LVL8
     /tmp/cccuIJwW.s:139    .text:00000000000000cc .LVL13
     /tmp/cccuIJwW.s:141    .text:00000000000000d0 .LVL14
     /tmp/cccuIJwW.s:209    .text:0000000000000174 .LVL26
     /tmp/cccuIJwW.s:211    .text:0000000000000178 .LVL27
     /tmp/cccuIJwW.s:238    .text:00000000000001b0 .LVL30
     /tmp/cccuIJwW.s:169    .text:0000000000000104 .LVL18
     /tmp/cccuIJwW.s:173    .text:000000000000010c .LVL19
GAS LISTING /tmp/cccuIJwW.s 			page 33


     /tmp/cccuIJwW.s:241    .text:00000000000001b4 .LVL31
     /tmp/cccuIJwW.s:271    .text:00000000000001bc .LVL32
     /tmp/cccuIJwW.s:289    .text:00000000000001dc .LVL34
     /tmp/cccuIJwW.s:285    .text:00000000000001d4 .LVL33
     /tmp/cccuIJwW.s:310    .text:0000000000000214 .LVL38
     /tmp/cccuIJwW.s:312    .text:0000000000000218 .LVL39
     /tmp/cccuIJwW.s:406    .text:00000000000002f4 .LVL55
     /tmp/cccuIJwW.s:408    .text:00000000000002f8 .LVL56
     /tmp/cccuIJwW.s:435    .text:0000000000000330 .LVL59
     /tmp/cccuIJwW.s:341    .text:0000000000000240 .LVL42
     /tmp/cccuIJwW.s:366    .text:0000000000000284 .LVL47
     /tmp/cccuIJwW.s:370    .text:000000000000028c .LVL48
     /tmp/cccuIJwW.s:438    .text:0000000000000334 .LVL60
     /tmp/cccuIJwW.s:459    .text:000000000000033c .LVL61
     /tmp/cccuIJwW.s:478    .text:000000000000035c .LVL63
     /tmp/cccuIJwW.s:473    .text:0000000000000354 .LVL62
     /tmp/cccuIJwW.s:574    .text:0000000000000408 .LVL76
     /tmp/cccuIJwW.s:518    .text:0000000000000390 .LVL69
     /tmp/cccuIJwW.s:546    .text:00000000000003d4 .LVL73
     /tmp/cccuIJwW.s:501    .text:0000000000000378 .LVL66
     /tmp/cccuIJwW.s:510    .text:000000000000038c .LVL68
     /tmp/cccuIJwW.s:595    .text:0000000000000410 .LVL77
     /tmp/cccuIJwW.s:614    .text:0000000000000430 .LVL79
     /tmp/cccuIJwW.s:609    .text:0000000000000428 .LVL78
     /tmp/cccuIJwW.s:706    .text:00000000000004d4 .LVL91
     /tmp/cccuIJwW.s:654    .text:0000000000000464 .LVL85
     /tmp/cccuIJwW.s:682    .text:00000000000004a8 .LVL89
     /tmp/cccuIJwW.s:637    .text:000000000000044c .LVL82
     /tmp/cccuIJwW.s:646    .text:0000000000000460 .LVL84
     /tmp/cccuIJwW.s:13     .text:0000000000000000 .LVL0
     /tmp/cccuIJwW.s:36     .text:0000000000000030 .LVL1
     /tmp/cccuIJwW.s:60     .text:000000000000005c .LVL4
     /tmp/cccuIJwW.s:66     .text:0000000000000068 .LVL5
     /tmp/cccuIJwW.s:860    .debug_info:0000000000000000 .Ldebug_info0
     /tmp/cccuIJwW.s:481    .text:000000000000035c .LBB4
     /tmp/cccuIJwW.s:514    .text:000000000000038c .LBE4
     /tmp/cccuIJwW.s:542    .text:00000000000003cc .LBB8
     /tmp/cccuIJwW.s:548    .text:00000000000003d4 .LBE8
     /tmp/cccuIJwW.s:617    .text:0000000000000430 .LBB12
     /tmp/cccuIJwW.s:650    .text:0000000000000460 .LBE12
     /tmp/cccuIJwW.s:678    .text:00000000000004a0 .LBB16
     /tmp/cccuIJwW.s:684    .text:00000000000004a8 .LBE16

UNDEFINED SYMBOLS
_Z15thread_dispatchv
_Z11printStringPKc
_Z8printIntiii
_Z13thread_createPP3TCBPFvPvES2_
